
GccApplication1.elf:     file format elf32-avr

Sections:
Idx Name          Size      VMA       LMA       File off  Algn
  0 .data         00000090  00800100  00001974  00001a08  2**0
                  CONTENTS, ALLOC, LOAD, DATA
  1 .text         00001974  00000000  00000000  00000094  2**1
                  CONTENTS, ALLOC, LOAD, READONLY, CODE
  2 .bss          00000014  00800190  00800190  00001a98  2**0
                  ALLOC
  3 .comment      0000005c  00000000  00000000  00001a98  2**0
                  CONTENTS, READONLY
  4 .note.gnu.avr.deviceinfo 0000003c  00000000  00000000  00001af4  2**2
                  CONTENTS, READONLY
  5 .debug_aranges 000002b0  00000000  00000000  00001b30  2**0
                  CONTENTS, READONLY, DEBUGGING
  6 .debug_info   00002e95  00000000  00000000  00001de0  2**0
                  CONTENTS, READONLY, DEBUGGING
  7 .debug_abbrev 00001550  00000000  00000000  00004c75  2**0
                  CONTENTS, READONLY, DEBUGGING
  8 .debug_line   00001842  00000000  00000000  000061c5  2**0
                  CONTENTS, READONLY, DEBUGGING
  9 .debug_frame  000005b4  00000000  00000000  00007a08  2**2
                  CONTENTS, READONLY, DEBUGGING
 10 .debug_str    00000990  00000000  00000000  00007fbc  2**0
                  CONTENTS, READONLY, DEBUGGING
 11 .debug_loc    000011c0  00000000  00000000  0000894c  2**0
                  CONTENTS, READONLY, DEBUGGING
 12 .debug_ranges 00000250  00000000  00000000  00009b0c  2**0
                  CONTENTS, READONLY, DEBUGGING

Disassembly of section .text:

00000000 <__vectors>:
       0:	0c 94 60 03 	jmp	0x6c0	; 0x6c0 <__ctors_end>
       4:	0c 94 7d 03 	jmp	0x6fa	; 0x6fa <__bad_interrupt>
       8:	0c 94 7d 03 	jmp	0x6fa	; 0x6fa <__bad_interrupt>
       c:	0c 94 7d 05 	jmp	0xafa	; 0xafa <__vector_3>
      10:	0c 94 7d 03 	jmp	0x6fa	; 0x6fa <__bad_interrupt>
      14:	0c 94 7d 03 	jmp	0x6fa	; 0x6fa <__bad_interrupt>
      18:	0c 94 7d 03 	jmp	0x6fa	; 0x6fa <__bad_interrupt>
      1c:	0c 94 7d 03 	jmp	0x6fa	; 0x6fa <__bad_interrupt>
      20:	0c 94 7d 03 	jmp	0x6fa	; 0x6fa <__bad_interrupt>
      24:	0c 94 7d 03 	jmp	0x6fa	; 0x6fa <__bad_interrupt>
      28:	0c 94 7d 03 	jmp	0x6fa	; 0x6fa <__bad_interrupt>
      2c:	0c 94 7d 03 	jmp	0x6fa	; 0x6fa <__bad_interrupt>
      30:	0c 94 7d 03 	jmp	0x6fa	; 0x6fa <__bad_interrupt>
      34:	0c 94 7d 03 	jmp	0x6fa	; 0x6fa <__bad_interrupt>
      38:	0c 94 7d 03 	jmp	0x6fa	; 0x6fa <__bad_interrupt>
      3c:	0c 94 7d 03 	jmp	0x6fa	; 0x6fa <__bad_interrupt>
      40:	0c 94 7d 03 	jmp	0x6fa	; 0x6fa <__bad_interrupt>
      44:	0c 94 7d 03 	jmp	0x6fa	; 0x6fa <__bad_interrupt>
      48:	0c 94 7d 03 	jmp	0x6fa	; 0x6fa <__bad_interrupt>
      4c:	0c 94 7d 03 	jmp	0x6fa	; 0x6fa <__bad_interrupt>
      50:	0c 94 7d 03 	jmp	0x6fa	; 0x6fa <__bad_interrupt>
      54:	0c 94 7d 03 	jmp	0x6fa	; 0x6fa <__bad_interrupt>
      58:	0c 94 7d 03 	jmp	0x6fa	; 0x6fa <__bad_interrupt>
      5c:	0c 94 7d 03 	jmp	0x6fa	; 0x6fa <__bad_interrupt>
      60:	0c 94 7d 03 	jmp	0x6fa	; 0x6fa <__bad_interrupt>
      64:	0c 94 7d 03 	jmp	0x6fa	; 0x6fa <__bad_interrupt>
      68:	0c 94 7d 03 	jmp	0x6fa	; 0x6fa <__bad_interrupt>
      6c:	0c 94 7d 03 	jmp	0x6fa	; 0x6fa <__bad_interrupt>

00000070 <__trampolines_end>:
      70:	00 00       	nop
      72:	00 00       	nop
      74:	00 5c       	subi	r16, 0xC0	; 192
      76:	00 00       	nop
      78:	0c 00       	.word	0x000c	; ????
      7a:	0c 00       	.word	0x000c	; ????
      7c:	7c 28       	or	r7, r12
      7e:	7c 28       	or	r7, r12
      80:	58 dc       	rcall	.-1872   	; 0xfffff932 <__eeprom_end+0xff7ef932>
      82:	68 00       	.word	0x0068	; ????
      84:	24 10       	cpse	r2, r4
      86:	48 00       	.word	0x0048	; ????
      88:	28 54       	subi	r18, 0x48	; 72
      8a:	28 40       	sbci	r18, 0x08	; 8
      8c:	00 0c       	add	r0, r0
      8e:	00 00       	nop
      90:	00 78       	andi	r16, 0x80	; 128
      92:	84 00       	.word	0x0084	; ????
      94:	84 78       	andi	r24, 0x84	; 132
      96:	00 00       	nop
      98:	54 38       	cpi	r21, 0x84	; 132
      9a:	54 00       	.word	0x0054	; ????
      9c:	10 7c       	andi	r17, 0xC0	; 192
      9e:	10 00       	.word	0x0010	; ????
      a0:	80 40       	sbci	r24, 0x00	; 0
      a2:	00 00       	nop
      a4:	10 10       	cpse	r1, r0
      a6:	10 00       	.word	0x0010	; ????
      a8:	00 40       	sbci	r16, 0x00	; 0
      aa:	00 00       	nop
      ac:	60 10       	cpse	r6, r0
      ae:	0c 00       	.word	0x000c	; ????
      b0:	38 54       	subi	r19, 0x48	; 72
      b2:	38 00       	.word	0x0038	; ????
      b4:	48 7c       	andi	r20, 0xC8	; 200
      b6:	40 00       	.word	0x0040	; ????
      b8:	48 64       	ori	r20, 0x48	; 72
      ba:	58 00       	.word	0x0058	; ????
      bc:	44 54       	subi	r20, 0x44	; 68
      be:	2c 00       	.word	0x002c	; ????
      c0:	1c 10       	cpse	r1, r12
      c2:	7c 00       	.word	0x007c	; ????
      c4:	5c 54       	subi	r21, 0x4C	; 76
      c6:	24 00       	.word	0x0024	; ????
      c8:	38 54       	subi	r19, 0x48	; 72
      ca:	24 00       	.word	0x0024	; ????
      cc:	64 14       	cp	r6, r4
      ce:	0c 00       	.word	0x000c	; ????
      d0:	68 54       	subi	r22, 0x48	; 72
      d2:	2c 00       	.word	0x002c	; ????
      d4:	48 54       	subi	r20, 0x48	; 72
      d6:	38 00       	.word	0x0038	; ????
      d8:	00 48       	sbci	r16, 0x80	; 128
      da:	00 00       	nop
      dc:	80 48       	sbci	r24, 0x80	; 128
      de:	00 00       	nop
      e0:	10 28       	or	r1, r0
      e2:	44 00       	.word	0x0044	; ????
      e4:	28 28       	or	r2, r8
      e6:	28 00       	.word	0x0028	; ????
      e8:	44 28       	or	r4, r4
      ea:	10 00       	.word	0x0010	; ????
      ec:	04 54       	subi	r16, 0x44	; 68
      ee:	08 00       	.word	0x0008	; ????
      f0:	38 44       	sbci	r19, 0x48	; 72
      f2:	5c 00       	.word	0x005c	; ????
      f4:	78 14       	cp	r7, r8
      f6:	78 00       	.word	0x0078	; ????
      f8:	7c 54       	subi	r23, 0x4C	; 76
      fa:	28 00       	.word	0x0028	; ????
      fc:	38 44       	sbci	r19, 0x48	; 72
      fe:	28 00       	.word	0x0028	; ????
     100:	7c 44       	sbci	r23, 0x4C	; 76
     102:	38 00       	.word	0x0038	; ????
     104:	7c 54       	subi	r23, 0x4C	; 76
     106:	44 00       	.word	0x0044	; ????
     108:	7c 14       	cp	r7, r12
     10a:	04 00       	.word	0x0004	; ????
     10c:	38 44       	sbci	r19, 0x48	; 72
     10e:	74 00       	.word	0x0074	; ????
     110:	7c 10       	cpse	r7, r12
     112:	7c 00       	.word	0x007c	; ????
     114:	44 7c       	andi	r20, 0xC4	; 196
     116:	44 00       	.word	0x0044	; ????
     118:	20 40       	sbci	r18, 0x00	; 0
     11a:	3c 00       	.word	0x003c	; ????
     11c:	7c 10       	cpse	r7, r12
     11e:	6c 00       	.word	0x006c	; ????
     120:	7c 40       	sbci	r23, 0x0C	; 12
     122:	40 00       	.word	0x0040	; ????
     124:	7c 18       	sub	r7, r12
     126:	7c 00       	.word	0x007c	; ????
     128:	78 10       	cpse	r7, r8
     12a:	3c 00       	.word	0x003c	; ????
     12c:	38 44       	sbci	r19, 0x48	; 72
     12e:	38 00       	.word	0x0038	; ????
     130:	7c 14       	cp	r7, r12
     132:	08 00       	.word	0x0008	; ????
     134:	38 44       	sbci	r19, 0x48	; 72
     136:	b8 00       	.word	0x00b8	; ????
     138:	7c 14       	cp	r7, r12
     13a:	68 00       	.word	0x0068	; ????
     13c:	48 54       	subi	r20, 0x48	; 72
     13e:	24 00       	.word	0x0024	; ????
     140:	04 7c       	andi	r16, 0xC4	; 196
     142:	04 00       	.word	0x0004	; ????
     144:	7c 40       	sbci	r23, 0x0C	; 12
     146:	7c 00       	.word	0x007c	; ????
     148:	3c 60       	ori	r19, 0x0C	; 12
     14a:	3c 00       	.word	0x003c	; ????
     14c:	7c 30       	cpi	r23, 0x0C	; 12
     14e:	7c 00       	.word	0x007c	; ????
     150:	6c 10       	cpse	r6, r12
     152:	6c 00       	.word	0x006c	; ????
     154:	0c 70       	andi	r16, 0x0C	; 12
     156:	0c 00       	.word	0x000c	; ????
     158:	64 54       	subi	r22, 0x44	; 68
     15a:	4c 00       	.word	0x004c	; ????
     15c:	00 7c       	andi	r16, 0xC0	; 192
     15e:	44 00       	.word	0x0044	; ????
     160:	0c 10       	cpse	r0, r12
     162:	60 00       	.word	0x0060	; ????
     164:	44 7c       	andi	r20, 0xC4	; 196
     166:	00 00       	nop
     168:	08 04       	cpc	r0, r8
     16a:	08 00       	.word	0x0008	; ????
     16c:	80 80       	ld	r8, Z
     16e:	80 00       	.word	0x0080	; ????
     170:	00 04       	cpc	r0, r0
     172:	08 00       	.word	0x0008	; ????
     174:	30 48       	sbci	r19, 0x80	; 128
     176:	78 00       	.word	0x0078	; ????
     178:	7c 48       	sbci	r23, 0x8C	; 140
     17a:	30 00       	.word	0x0030	; ????
     17c:	30 48       	sbci	r19, 0x80	; 128
     17e:	48 00       	.word	0x0048	; ????
     180:	30 48       	sbci	r19, 0x80	; 128
     182:	7c 00       	.word	0x007c	; ????
     184:	30 68       	ori	r19, 0x80	; 128
     186:	50 00       	.word	0x0050	; ????
     188:	10 78       	andi	r17, 0x80	; 128
     18a:	14 00       	.word	0x0014	; ????
     18c:	90 a8       	ldd	r9, Z+48	; 0x30
     18e:	78 00       	.word	0x0078	; ????
     190:	7c 08       	sbc	r7, r12
     192:	70 00       	.word	0x0070	; ????
     194:	50 74       	andi	r21, 0x40	; 64
     196:	40 00       	.word	0x0040	; ????
     198:	80 80       	ld	r8, Z
     19a:	74 00       	.word	0x0074	; ????
     19c:	7c 10       	cpse	r7, r12
     19e:	68 00       	.word	0x0068	; ????
     1a0:	44 7c       	andi	r20, 0xC4	; 196
     1a2:	40 00       	.word	0x0040	; ????
     1a4:	78 10       	cpse	r7, r8
     1a6:	78 00       	.word	0x0078	; ????
     1a8:	78 08       	sbc	r7, r8
     1aa:	70 00       	.word	0x0070	; ????
     1ac:	30 48       	sbci	r19, 0x80	; 128
     1ae:	30 00       	.word	0x0030	; ????
     1b0:	f8 28       	or	r15, r8
     1b2:	10 00       	.word	0x0010	; ????
     1b4:	30 48       	sbci	r19, 0x80	; 128
     1b6:	f8 00       	.word	0x00f8	; ????
     1b8:	78 10       	cpse	r7, r8
     1ba:	08 00       	.word	0x0008	; ????
     1bc:	50 58       	subi	r21, 0x80	; 128
     1be:	28 00       	.word	0x0028	; ????
     1c0:	08 3c       	cpi	r16, 0xC8	; 200
     1c2:	48 00       	.word	0x0048	; ????
     1c4:	38 40       	sbci	r19, 0x08	; 8
     1c6:	78 00       	.word	0x0078	; ????
     1c8:	38 40       	sbci	r19, 0x08	; 8
     1ca:	38 00       	.word	0x0038	; ????
     1cc:	78 20       	and	r7, r8
     1ce:	78 00       	.word	0x0078	; ????
     1d0:	48 30       	cpi	r20, 0x08	; 8
     1d2:	48 00       	.word	0x0048	; ????
     1d4:	98 a0       	ldd	r9, Y+32	; 0x20
     1d6:	78 00       	.word	0x0078	; ????
     1d8:	48 68       	ori	r20, 0x88	; 136
     1da:	58 00       	.word	0x0058	; ????
     1dc:	10 78       	andi	r17, 0x80	; 128
     1de:	84 00       	.word	0x0084	; ????
     1e0:	00 7c       	andi	r16, 0xC0	; 192
     1e2:	00 00       	nop
     1e4:	84 78       	andi	r24, 0x84	; 132
     1e6:	10 00       	.word	0x0010	; ????
     1e8:	08 04       	cpc	r0, r8
     1ea:	08 04       	cpc	r0, r8

000001ec <font5>:
     1ec:	00 00 00 00 00 00 00 5f 00 00 00 07 00 07 00 14     ......._........
     1fc:	7f 14 7f 14 24 2a 7f 2a 12 23 13 08 64 62 36 49     ....$*.*.#..db6I
     20c:	55 22 50 00 05 03 00 00 00 1c 22 41 00 00 41 22     U"P......."A..A"
     21c:	1c 00 08 2a 1c 2a 08 08 08 3e 08 08 00 50 30 00     ...*.*...>...P0.
     22c:	00 08 08 08 08 08 00 60 60 00 00 20 10 08 04 02     .......``.. ....
     23c:	3e 51 49 45 3e 00 42 7f 40 00 42 61 51 49 46 21     >QIE>.B.@.BaQIF!
     24c:	41 45 4b 31 18 14 12 7f 10 27 45 45 45 39 3c 4a     AEK1.....'EEE9<J
     25c:	49 49 30 01 71 09 05 03 36 49 49 49 36 06 49 49     II0.q...6III6.II
     26c:	29 1e 00 36 36 00 00 00 56 36 00 00 00 08 14 22     )..66...V6....."
     27c:	41 14 14 14 14 14 41 22 14 08 00 02 01 51 09 06     A.....A".....Q..
     28c:	32 49 79 41 3e 7e 11 11 11 7e 7f 49 49 49 36 3e     2IyA>~...~.III6>
     29c:	41 41 41 22 7f 41 41 22 1c 7f 49 49 49 41 7f 09     AAA".AA"..IIIA..
     2ac:	09 01 01 3e 41 41 51 32 7f 08 08 08 7f 00 41 7f     ...>AAQ2......A.
     2bc:	41 00 20 40 41 3f 01 7f 08 14 22 41 7f 40 40 40     A. @A?...."A.@@@
     2cc:	40 7f 02 04 02 7f 7f 04 08 10 7f 3e 41 41 41 3e     @..........>AAA>
     2dc:	7f 09 09 09 06 3e 41 51 21 5e 7f 09 19 29 46 46     .....>AQ!^...)FF
     2ec:	49 49 49 31 01 01 7f 01 01 3f 40 40 40 3f 1f 20     III1.....?@@@?. 
     2fc:	40 20 1f 7f 20 18 20 7f 63 14 08 14 63 03 04 78     @ .. . .c...c..x
     30c:	04 03 61 51 49 45 43 00 00 7f 41 41 02 04 08 10     ..aQIEC...AA....
     31c:	20 41 41 7f 00 00 04 02 01 02 04 40 40 40 40 40      AA........@@@@@
     32c:	00 01 02 04 00 20 54 54 54 78 7f 48 44 44 38 38     ..... TTTx.HDD88
     33c:	44 44 44 20 38 44 44 48 7f 38 54 54 54 18 08 7e     DDD 8DDH.8TTT..~
     34c:	09 01 02 08 14 54 54 3c 7f 08 04 04 78 00 44 7d     .....TT<....x.D}
     35c:	40 00 20 40 44 3d 00 00 7f 10 28 44 00 41 7f 40     @. @D=....(D.A.@
     36c:	00 7c 04 18 04 78 7c 08 04 04 78 38 44 44 44 38     .|...x|...x8DDD8
     37c:	7c 14 14 14 08 08 14 14 18 7c 7c 08 04 04 08 48     |........||....H
     38c:	54 54 54 20 04 3f 44 40 20 3c 40 40 20 7c 1c 20     TTT .?D@ <@@ |. 
     39c:	40 20 1c 3c 40 30 40 3c 44 28 10 28 44 0c 50 50     @ .<@0@<D(.(D.PP
     3ac:	50 3c 44 64 54 4c 44 00 08 36 41 00 00 00 7f 00     P<DdTLD..6A.....
     3bc:	00 00 41 36 08 00 02 01 03 02 01                    ..A6.......

000003c7 <font8>:
	...
     3cf:	00 06 5f 5f 06 00 00 00 00 07 07 00 07 07 00 00     ..__............
     3df:	14 7f 7f 14 7f 7f 14 00 24 2e 6b 6b 3a 12 00 00     ........$.kk:...
     3ef:	46 66 30 18 0c 66 62 00 30 7a 4f 5d 37 7a 48 00     Ff0..fb.0zO]7zH.
     3ff:	04 07 03 00 00 00 00 00 00 1c 3e 63 41 00 00 00     ..........>cA...
     40f:	00 41 63 3e 1c 00 00 00 08 2a 3e 1c 1c 3e 2a 08     .Ac>.....*>..>*.
     41f:	08 08 3e 3e 08 08 00 00 00 a0 e0 60 00 00 00 00     ..>>.......`....
     42f:	08 08 08 08 08 08 00 00 00 00 60 60 00 00 00 00     ..........``....
     43f:	60 30 18 0c 06 03 01 00 3e 7f 59 4d 7f 3e 00 00     `0......>.YM.>..
     44f:	42 42 7f 7f 40 40 00 00 62 73 59 49 6f 66 00 00     BB..@@..bsYIof..
     45f:	22 63 49 49 7f 36 00 00 18 1c 16 13 7f 7f 10 00     "cII.6..........
     46f:	27 67 45 45 7d 39 00 00 3c 7e 4b 49 79 30 00 00     'gEE}9..<~KIy0..
     47f:	03 63 71 19 0f 07 00 00 36 7f 49 49 7f 36 00 00     .cq.....6.II.6..
     48f:	06 4f 49 69 3f 1e 00 00 00 00 6c 6c 00 00 00 00     .OIi?.....ll....
     49f:	00 a0 ec 6c 00 00 00 00 08 1c 36 63 41 00 00 00     ...l......6cA...
     4af:	14 14 14 14 14 14 00 00 00 41 63 36 1c 08 00 00     .........Ac6....
     4bf:	02 03 51 59 0f 06 00 00 3e 7f 41 5d 5d 1f 1e 00     ..QY....>.A]]...
     4cf:	7c 7e 13 13 7e 7c 00 00 41 7f 7f 49 49 7f 36 00     |~..~|..A..II.6.
     4df:	1c 3e 63 41 41 63 22 00 41 7f 7f 41 63 7f 1c 00     .>cAAc".A..Ac...
     4ef:	41 7f 7f 49 5d 41 63 00 41 7f 7f 49 1d 01 03 00     A..I]Ac.A..I....
     4ff:	1c 3e 63 41 51 73 72 00 7f 7f 08 08 7f 7f 00 00     .>cAQsr.........
     50f:	00 41 7f 7f 41 00 00 00 30 70 40 41 7f 3f 01 00     .A..A...0p@A.?..
     51f:	41 7f 7f 08 1c 77 63 00 41 7f 7f 41 40 60 70 00     A....wc.A..A@`p.
     52f:	7f 7f 06 0c 06 7f 7f 00 7f 7f 06 0c 18 7f 7f 00     ................
     53f:	1c 3e 63 41 63 3e 1c 00 41 7f 7f 49 09 0f 06 00     .>cAc>..A..I....
     54f:	1e 3f 21 71 7f 5e 00 00 41 7f 7f 19 39 6f 46 00     .?!q.^..A...9oF.
     55f:	26 67 4d 59 7b 32 00 00 03 41 7f 7f 41 03 00 00     &gMY{2...A..A...
     56f:	7f 7f 40 40 7f 7f 00 00 1f 3f 60 60 3f 1f 00 00     ..@@.....?``?...
     57f:	7f 7f 30 18 30 7f 7f 00 63 77 1c 08 1c 77 63 00     ..0.0...cw...wc.
     58f:	07 4f 78 78 4f 07 00 00 67 73 59 4d 47 63 71 00     .OxxO...gsYMGcq.
     59f:	00 7f 7f 41 41 00 00 00 01 03 06 0c 18 30 60 00     ...AA........0`.
     5af:	00 41 41 7f 7f 00 00 00 08 0c 06 03 06 0c 08 00     .AA.............
     5bf:	80 80 80 80 80 80 80 80 00 00 03 07 04 00 00 00     ................
     5cf:	20 74 54 54 3c 78 40 00 41 3f 7f 44 44 7c 38 00      tTT<x@.A?.DD|8.
     5df:	38 7c 44 44 6c 28 00 00 30 78 48 49 3f 7f 40 00     8|DDl(..0xHI?.@.
     5ef:	38 7c 54 54 5c 18 00 00 48 7e 7f 49 03 02 00 00     8|TT\...H~.I....
     5ff:	98 bc a4 a4 f8 7c 04 00 41 7f 7f 08 04 7c 78 00     .....|..A....|x.
     60f:	00 44 7d 7d 40 00 00 00 40 c4 84 fd 7d 00 00 00     .D}}@...@...}...
     61f:	41 7f 7f 10 38 6c 44 00 00 41 7f 7f 40 00 00 00     A...8lD..A..@...
     62f:	7c 7c 0c 18 0c 7c 78 00 7c 7c 04 04 7c 78 00 00     ||...|x.||..|x..
     63f:	38 7c 44 44 7c 38 00 00 84 fc f8 a4 24 3c 18 00     8|DD|8......$<..
     64f:	18 3c 24 a4 f8 fc 84 00 44 7c 78 44 1c 18 00 00     .<$.....D|xD....
     65f:	48 5c 54 54 74 24 00 00 00 04 3e 7f 44 24 00 00     H\TTt$....>.D$..
     66f:	3c 7c 40 40 3c 7c 40 00 1c 3c 60 60 3c 1c 00 00     <|@@<|@..<``<...
     67f:	3c 7c 60 30 60 7c 3c 00 44 6c 38 10 38 6c 44 00     <|`0`|<.Dl8.8lD.
     68f:	9c bc a0 a0 fc 7c 00 00 4c 64 74 5c 4c 64 00 00     .....|..Ldt\Ld..
     69f:	08 08 3e 77 41 41 00 00 00 00 00 77 77 00 00 00     ..>wAA.....ww...
     6af:	41 41 77 3e 08 08 00 00 02 03 01 03 02 03 01 00     AAw>............
	...

000006c0 <__ctors_end>:
     6c0:	11 24       	eor	r1, r1
     6c2:	1f be       	out	0x3f, r1	; 63
     6c4:	cf ef       	ldi	r28, 0xFF	; 255
     6c6:	d4 e0       	ldi	r29, 0x04	; 4
     6c8:	de bf       	out	0x3e, r29	; 62
     6ca:	cd bf       	out	0x3d, r28	; 61

000006cc <__do_copy_data>:
     6cc:	11 e0       	ldi	r17, 0x01	; 1
     6ce:	a0 e0       	ldi	r26, 0x00	; 0
     6d0:	b1 e0       	ldi	r27, 0x01	; 1
     6d2:	e4 e7       	ldi	r30, 0x74	; 116
     6d4:	f9 e1       	ldi	r31, 0x19	; 25
     6d6:	02 c0       	rjmp	.+4      	; 0x6dc <__do_copy_data+0x10>
     6d8:	05 90       	lpm	r0, Z+
     6da:	0d 92       	st	X+, r0
     6dc:	a0 39       	cpi	r26, 0x90	; 144
     6de:	b1 07       	cpc	r27, r17
     6e0:	d9 f7       	brne	.-10     	; 0x6d8 <__do_copy_data+0xc>

000006e2 <__do_clear_bss>:
     6e2:	21 e0       	ldi	r18, 0x01	; 1
     6e4:	a0 e9       	ldi	r26, 0x90	; 144
     6e6:	b1 e0       	ldi	r27, 0x01	; 1
     6e8:	01 c0       	rjmp	.+2      	; 0x6ec <.do_clear_bss_start>

000006ea <.do_clear_bss_loop>:
     6ea:	1d 92       	st	X+, r1

000006ec <.do_clear_bss_start>:
     6ec:	a4 3a       	cpi	r26, 0xA4	; 164
     6ee:	b2 07       	cpc	r27, r18
     6f0:	e1 f7       	brne	.-8      	; 0x6ea <.do_clear_bss_loop>
     6f2:	0e 94 d8 05 	call	0xbb0	; 0xbb0 <main>
     6f6:	0c 94 b8 0c 	jmp	0x1970	; 0x1970 <_exit>

000006fa <__bad_interrupt>:
     6fa:	0c 94 00 00 	jmp	0	; 0x0 <__vectors>

000006fe <ADC_init>:
 */ 
#include "ADC.h"

void ADC_init(){

	set_bit(TCCR3A, COM3A0);
     6fe:	eb e8       	ldi	r30, 0x8B	; 139
     700:	f0 e0       	ldi	r31, 0x00	; 0
     702:	80 81       	ld	r24, Z
     704:	80 64       	ori	r24, 0x40	; 64
     706:	80 83       	st	Z, r24
	set_bit(TCCR3B, CS00);
     708:	ea e8       	ldi	r30, 0x8A	; 138
     70a:	f0 e0       	ldi	r31, 0x00	; 0
     70c:	80 81       	ld	r24, Z
     70e:	81 60       	ori	r24, 0x01	; 1
     710:	80 83       	st	Z, r24
	set_bit(TCCR3B, WGM12);
     712:	80 81       	ld	r24, Z
     714:	88 60       	ori	r24, 0x08	; 8
     716:	80 83       	st	Z, r24
	set_bit(DDRD, PD4);
     718:	81 b3       	in	r24, 0x11	; 17
     71a:	80 61       	ori	r24, 0x10	; 16
     71c:	81 bb       	out	0x11, r24	; 17
     71e:	08 95       	ret

00000720 <ADC_sample>:
	
}

void ADC_sample(GAMEBOARD_VALUES* values){
     720:	dc 01       	movw	r26, r24
	volatile char* adc_addr = (char*)0x1400;
	
	values->joystick_x = adc_addr[0];
     722:	e0 e0       	ldi	r30, 0x00	; 0
     724:	f4 e1       	ldi	r31, 0x14	; 20
     726:	80 81       	ld	r24, Z
     728:	8c 93       	st	X, r24
	values->button_left = adc_addr[0];
     72a:	80 81       	ld	r24, Z
     72c:	11 96       	adiw	r26, 0x01	; 1
     72e:	8c 93       	st	X, r24
     730:	11 97       	sbiw	r26, 0x01	; 1
	values->slider_right = adc_addr[0];
     732:	80 81       	ld	r24, Z
     734:	12 96       	adiw	r26, 0x02	; 2
     736:	8c 93       	st	X, r24
     738:	12 97       	sbiw	r26, 0x02	; 2
	values->button_right = adc_addr[0];
     73a:	80 81       	ld	r24, Z
     73c:	13 96       	adiw	r26, 0x03	; 3
     73e:	8c 93       	st	X, r24
	
	adc_addr[0] = 0;
     740:	10 82       	st	Z, r1
     742:	08 95       	ret

00000744 <USART_transmit>:
}

void USART_transmit(unsigned char data){
	// wait for empty transmit buffer

	loop_until_bit_is_set(UCSR0A, UDRE0);
     744:	5d 9b       	sbis	0x0b, 5	; 11
     746:	fe cf       	rjmp	.-4      	; 0x744 <USART_transmit>
	//put data into buffer, sends the data
	UDR0 = data;
     748:	8c b9       	out	0x0c, r24	; 12
     74a:	08 95       	ret

0000074c <USART_receive>:
}
unsigned char USART_receive( void ){
	// Wait for data to be received

	loop_until_bit_is_set(UCSR0A, RXC0);
     74c:	5f 9b       	sbis	0x0b, 7	; 11
     74e:	fe cf       	rjmp	.-4      	; 0x74c <USART_receive>
	// Get and return received data from buffer
	return UDR0;
     750:	8c b1       	in	r24, 0x0c	; 12
     752:	08 95       	ret

00000754 <USART_init>:
 */ 
#include "uart.h"

void USART_init(unsigned int ubrr){
	// Set baud rate
	UBRR0H = (unsigned char)(ubrr>>8);
     754:	90 bd       	out	0x20, r25	; 32
	UBRR0L = (unsigned char)ubrr;
     756:	89 b9       	out	0x09, r24	; 9
	//Enable receiver and transmitter
	UCSR0B = (1<<RXEN0)|(1<<TXEN0);
     758:	88 e1       	ldi	r24, 0x18	; 24
     75a:	8a b9       	out	0x0a, r24	; 10
	// Set frame format: 8data, 2stop bit
	UCSR0C = (1<<URSEL0)| (1 << USBS0) |(3<<UCSZ00);
     75c:	8e e8       	ldi	r24, 0x8E	; 142
     75e:	80 bd       	out	0x20, r24	; 32
	
	fdevopen(USART_transmit, USART_receive);
     760:	66 ea       	ldi	r22, 0xA6	; 166
     762:	73 e0       	ldi	r23, 0x03	; 3
     764:	82 ea       	ldi	r24, 0xA2	; 162
     766:	93 e0       	ldi	r25, 0x03	; 3
     768:	0e 94 3b 08 	call	0x1076	; 0x1076 <fdevopen>
     76c:	08 95       	ret

0000076e <CAN_init>:
#include "CAN.h"


void CAN_init(uint8_t mode){
	
	mcp_2515_init(mode);
     76e:	0e 94 9a 04 	call	0x934	; 0x934 <mcp_2515_init>
     772:	08 95       	ret

00000774 <CAN_transmit>:
	
}


void CAN_transmit(CAN_msg* msg){
     774:	0f 93       	push	r16
     776:	1f 93       	push	r17
     778:	cf 93       	push	r28
     77a:	df 93       	push	r29
     77c:	8c 01       	movw	r16, r24
	
	mcp_2515_write(MCP_TXB0SIDH, msg->id >> 3);
     77e:	fc 01       	movw	r30, r24
     780:	60 81       	ld	r22, Z
     782:	71 81       	ldd	r23, Z+1	; 0x01
     784:	76 95       	lsr	r23
     786:	67 95       	ror	r22
     788:	76 95       	lsr	r23
     78a:	67 95       	ror	r22
     78c:	76 95       	lsr	r23
     78e:	67 95       	ror	r22
     790:	81 e3       	ldi	r24, 0x31	; 49
     792:	0e 94 3e 04 	call	0x87c	; 0x87c <mcp_2515_write>
	mcp_2515_write(MCP_TXB0SIDL, msg->id << 5);
     796:	f8 01       	movw	r30, r16
     798:	60 81       	ld	r22, Z
     79a:	62 95       	swap	r22
     79c:	66 0f       	add	r22, r22
     79e:	60 7e       	andi	r22, 0xE0	; 224
     7a0:	82 e3       	ldi	r24, 0x32	; 50
     7a2:	0e 94 3e 04 	call	0x87c	; 0x87c <mcp_2515_write>
	mcp_2515_write(MCP_TXB0DLC, msg->length);
     7a6:	f8 01       	movw	r30, r16
     7a8:	62 81       	ldd	r22, Z+2	; 0x02
     7aa:	85 e3       	ldi	r24, 0x35	; 53
     7ac:	0e 94 3e 04 	call	0x87c	; 0x87c <mcp_2515_write>
	
	for(int x = 0; x < msg->length; x++){
     7b0:	c0 e0       	ldi	r28, 0x00	; 0
     7b2:	d0 e0       	ldi	r29, 0x00	; 0
     7b4:	09 c0       	rjmp	.+18     	; 0x7c8 <CAN_transmit+0x54>
		mcp_2515_write(MCP_TXB0Dm + x, msg->data[x]);
     7b6:	f8 01       	movw	r30, r16
     7b8:	ec 0f       	add	r30, r28
     7ba:	fd 1f       	adc	r31, r29
     7bc:	63 81       	ldd	r22, Z+3	; 0x03
     7be:	8c 2f       	mov	r24, r28
     7c0:	8a 5c       	subi	r24, 0xCA	; 202
     7c2:	0e 94 3e 04 	call	0x87c	; 0x87c <mcp_2515_write>
	
	mcp_2515_write(MCP_TXB0SIDH, msg->id >> 3);
	mcp_2515_write(MCP_TXB0SIDL, msg->id << 5);
	mcp_2515_write(MCP_TXB0DLC, msg->length);
	
	for(int x = 0; x < msg->length; x++){
     7c6:	21 96       	adiw	r28, 0x01	; 1
     7c8:	f8 01       	movw	r30, r16
     7ca:	82 81       	ldd	r24, Z+2	; 0x02
     7cc:	90 e0       	ldi	r25, 0x00	; 0
     7ce:	c8 17       	cp	r28, r24
     7d0:	d9 07       	cpc	r29, r25
     7d2:	8c f3       	brlt	.-30     	; 0x7b6 <CAN_transmit+0x42>
		mcp_2515_write(MCP_TXB0Dm + x, msg->data[x]);
	}
	
	mcp_2515_request_to_send(0);
     7d4:	80 e0       	ldi	r24, 0x00	; 0
     7d6:	0e 94 82 04 	call	0x904	; 0x904 <mcp_2515_request_to_send>
	
}
     7da:	df 91       	pop	r29
     7dc:	cf 91       	pop	r28
     7de:	1f 91       	pop	r17
     7e0:	0f 91       	pop	r16
     7e2:	08 95       	ret

000007e4 <CAN_receive>:


CAN_msg CAN_receive(){
     7e4:	ff 92       	push	r15
     7e6:	0f 93       	push	r16
     7e8:	1f 93       	push	r17
     7ea:	cf 93       	push	r28
     7ec:	df 93       	push	r29
     7ee:	8c 01       	movw	r16, r24
	
	CAN_msg received_message;
	
	uint8_t id_high = mcp_2515_read(MCP_RXB0SIDH) << 3;
     7f0:	81 e6       	ldi	r24, 0x61	; 97
     7f2:	0e 94 54 04 	call	0x8a8	; 0x8a8 <mcp_2515_read>
     7f6:	c8 2f       	mov	r28, r24
     7f8:	cc 0f       	add	r28, r28
     7fa:	cc 0f       	add	r28, r28
     7fc:	cc 0f       	add	r28, r28
	uint8_t id_low = mcp_2515_read(MCP_RXB0SIDL) >> 5;
     7fe:	82 e6       	ldi	r24, 0x62	; 98
     800:	0e 94 54 04 	call	0x8a8	; 0x8a8 <mcp_2515_read>
     804:	82 95       	swap	r24
     806:	86 95       	lsr	r24
     808:	87 70       	andi	r24, 0x07	; 7
	
	received_message.id = id_high + id_low;
     80a:	90 e0       	ldi	r25, 0x00	; 0
     80c:	8c 0f       	add	r24, r28
     80e:	91 1d       	adc	r25, r1
     810:	f8 01       	movw	r30, r16
     812:	91 83       	std	Z+1, r25	; 0x01
     814:	80 83       	st	Z, r24
	
	uint8_t length = mcp_2515_read(MCP_RXB0DLC);
     816:	85 e6       	ldi	r24, 0x65	; 101
     818:	0e 94 54 04 	call	0x8a8	; 0x8a8 <mcp_2515_read>
     81c:	f8 2e       	mov	r15, r24
	
	received_message.length = length;
     81e:	f8 01       	movw	r30, r16
     820:	82 83       	std	Z+2, r24	; 0x02
	
	for(int x = 0; x < length; x++){
     822:	c0 e0       	ldi	r28, 0x00	; 0
     824:	d0 e0       	ldi	r29, 0x00	; 0
     826:	09 c0       	rjmp	.+18     	; 0x83a <CAN_receive+0x56>
		received_message.data[x] = mcp_2515_read(MCP_RXB0Dm + x);
     828:	8c 2f       	mov	r24, r28
     82a:	8a 59       	subi	r24, 0x9A	; 154
     82c:	0e 94 54 04 	call	0x8a8	; 0x8a8 <mcp_2515_read>
     830:	f8 01       	movw	r30, r16
     832:	ec 0f       	add	r30, r28
     834:	fd 1f       	adc	r31, r29
     836:	83 83       	std	Z+3, r24	; 0x03
	
	uint8_t length = mcp_2515_read(MCP_RXB0DLC);
	
	received_message.length = length;
	
	for(int x = 0; x < length; x++){
     838:	21 96       	adiw	r28, 0x01	; 1
     83a:	8f 2d       	mov	r24, r15
     83c:	90 e0       	ldi	r25, 0x00	; 0
     83e:	c8 17       	cp	r28, r24
     840:	d9 07       	cpc	r29, r25
     842:	94 f3       	brlt	.-28     	; 0x828 <CAN_receive+0x44>
		received_message.data[x] = mcp_2515_read(MCP_RXB0Dm + x);
	}
	
	// tells the MCP that the buffer is read
	mcp_2515_bit_modify(MCP_CANINTF, 1, 0);
     844:	40 e0       	ldi	r20, 0x00	; 0
     846:	61 e0       	ldi	r22, 0x01	; 1
     848:	8c e2       	ldi	r24, 0x2C	; 44
     84a:	0e 94 66 04 	call	0x8cc	; 0x8cc <mcp_2515_bit_modify>
	
	return received_message;
}
     84e:	c8 01       	movw	r24, r16
     850:	df 91       	pop	r29
     852:	cf 91       	pop	r28
     854:	1f 91       	pop	r17
     856:	0f 91       	pop	r16
     858:	ff 90       	pop	r15
     85a:	08 95       	ret

0000085c <mcp_2515_reset>:
	uint8_t status = spi_read();
	
	CAN_disable_SPI;
	
	return status;
}
     85c:	88 b3       	in	r24, 0x18	; 24
     85e:	8f 7e       	andi	r24, 0xEF	; 239
     860:	88 bb       	out	0x18, r24	; 24
     862:	80 ec       	ldi	r24, 0xC0	; 192
     864:	0e 94 05 08 	call	0x100a	; 0x100a <spi_write>
     868:	88 b3       	in	r24, 0x18	; 24
     86a:	80 61       	ori	r24, 0x10	; 16
     86c:	88 bb       	out	0x18, r24	; 24
     86e:	83 ec       	ldi	r24, 0xC3	; 195
     870:	99 e0       	ldi	r25, 0x09	; 9
     872:	01 97       	sbiw	r24, 0x01	; 1
     874:	f1 f7       	brne	.-4      	; 0x872 <mcp_2515_reset+0x16>
     876:	00 c0       	rjmp	.+0      	; 0x878 <mcp_2515_reset+0x1c>
     878:	00 00       	nop
     87a:	08 95       	ret

0000087c <mcp_2515_write>:
     87c:	cf 93       	push	r28
     87e:	df 93       	push	r29
     880:	d8 2f       	mov	r29, r24
     882:	c6 2f       	mov	r28, r22
     884:	88 b3       	in	r24, 0x18	; 24
     886:	8f 7e       	andi	r24, 0xEF	; 239
     888:	88 bb       	out	0x18, r24	; 24
     88a:	82 e0       	ldi	r24, 0x02	; 2
     88c:	0e 94 05 08 	call	0x100a	; 0x100a <spi_write>
     890:	8d 2f       	mov	r24, r29
     892:	0e 94 05 08 	call	0x100a	; 0x100a <spi_write>
     896:	8c 2f       	mov	r24, r28
     898:	0e 94 05 08 	call	0x100a	; 0x100a <spi_write>
     89c:	88 b3       	in	r24, 0x18	; 24
     89e:	80 61       	ori	r24, 0x10	; 16
     8a0:	88 bb       	out	0x18, r24	; 24
     8a2:	df 91       	pop	r29
     8a4:	cf 91       	pop	r28
     8a6:	08 95       	ret

000008a8 <mcp_2515_read>:
     8a8:	cf 93       	push	r28
     8aa:	c8 2f       	mov	r28, r24
     8ac:	88 b3       	in	r24, 0x18	; 24
     8ae:	8f 7e       	andi	r24, 0xEF	; 239
     8b0:	88 bb       	out	0x18, r24	; 24
     8b2:	83 e0       	ldi	r24, 0x03	; 3
     8b4:	0e 94 05 08 	call	0x100a	; 0x100a <spi_write>
     8b8:	8c 2f       	mov	r24, r28
     8ba:	0e 94 05 08 	call	0x100a	; 0x100a <spi_write>
     8be:	0e 94 09 08 	call	0x1012	; 0x1012 <spi_read>
     8c2:	98 b3       	in	r25, 0x18	; 24
     8c4:	90 61       	ori	r25, 0x10	; 16
     8c6:	98 bb       	out	0x18, r25	; 24
     8c8:	cf 91       	pop	r28
     8ca:	08 95       	ret

000008cc <mcp_2515_bit_modify>:

void mcp_2515_bit_modify(uint8_t address, uint8_t mask, uint8_t data){
     8cc:	1f 93       	push	r17
     8ce:	cf 93       	push	r28
     8d0:	df 93       	push	r29
     8d2:	18 2f       	mov	r17, r24
     8d4:	d6 2f       	mov	r29, r22
     8d6:	c4 2f       	mov	r28, r20
	CAN_enable_SPI;
     8d8:	88 b3       	in	r24, 0x18	; 24
     8da:	8f 7e       	andi	r24, 0xEF	; 239
     8dc:	88 bb       	out	0x18, r24	; 24
	
	spi_write(MCP_BITMOD);
     8de:	85 e0       	ldi	r24, 0x05	; 5
     8e0:	0e 94 05 08 	call	0x100a	; 0x100a <spi_write>
	spi_write(address);
     8e4:	81 2f       	mov	r24, r17
     8e6:	0e 94 05 08 	call	0x100a	; 0x100a <spi_write>
	spi_write(mask);
     8ea:	8d 2f       	mov	r24, r29
     8ec:	0e 94 05 08 	call	0x100a	; 0x100a <spi_write>
	spi_write(data);
     8f0:	8c 2f       	mov	r24, r28
     8f2:	0e 94 05 08 	call	0x100a	; 0x100a <spi_write>
	
	CAN_disable_SPI;
     8f6:	88 b3       	in	r24, 0x18	; 24
     8f8:	80 61       	ori	r24, 0x10	; 16
     8fa:	88 bb       	out	0x18, r24	; 24
}
     8fc:	df 91       	pop	r29
     8fe:	cf 91       	pop	r28
     900:	1f 91       	pop	r17
     902:	08 95       	ret

00000904 <mcp_2515_request_to_send>:

void mcp_2515_request_to_send(uint8_t buffer){
	CAN_enable_SPI;
     904:	98 b3       	in	r25, 0x18	; 24
     906:	9f 7e       	andi	r25, 0xEF	; 239
     908:	98 bb       	out	0x18, r25	; 24
	
	spi_write(MCP_RTS_TX + (0b1 << buffer));
     90a:	21 e0       	ldi	r18, 0x01	; 1
     90c:	30 e0       	ldi	r19, 0x00	; 0
     90e:	a9 01       	movw	r20, r18
     910:	02 c0       	rjmp	.+4      	; 0x916 <mcp_2515_request_to_send+0x12>
     912:	44 0f       	add	r20, r20
     914:	55 1f       	adc	r21, r21
     916:	8a 95       	dec	r24
     918:	e2 f7       	brpl	.-8      	; 0x912 <mcp_2515_request_to_send+0xe>
     91a:	ca 01       	movw	r24, r20
     91c:	80 58       	subi	r24, 0x80	; 128
     91e:	0e 94 05 08 	call	0x100a	; 0x100a <spi_write>
	
	CAN_disable_SPI;
     922:	88 b3       	in	r24, 0x18	; 24
     924:	80 61       	ori	r24, 0x10	; 16
     926:	88 bb       	out	0x18, r24	; 24
     928:	08 95       	ret

0000092a <mcp_2515_set_mode>:
}

void mcp_2515_set_mode(uint8_t mode){
	mcp_2515_write(MCP_CANCTRL, mode);
     92a:	68 2f       	mov	r22, r24
     92c:	8f e0       	ldi	r24, 0x0F	; 15
     92e:	0e 94 3e 04 	call	0x87c	; 0x87c <mcp_2515_write>
     932:	08 95       	ret

00000934 <mcp_2515_init>:
 *  Author: oystebw
 */ 

#include "CAN_controller.h"

void mcp_2515_init(uint8_t mode){
     934:	1f 93       	push	r17
     936:	cf 93       	push	r28
     938:	df 93       	push	r29
     93a:	18 2f       	mov	r17, r24
	spi_init();
     93c:	0e 94 ef 07 	call	0xfde	; 0xfde <spi_init>
	mcp_2515_reset();
     940:	0e 94 2e 04 	call	0x85c	; 0x85c <mcp_2515_reset>
	time quantum (T_q) = 2*T_osc
	*/

	uint8_t BRP = CAN_FREQ / (2 * 16 * BAUDRATE);
	
	mcp_2515_write(MCP_CNF3, WAKFIL_DISABLE | (PS2 - 1));
     944:	65 e0       	ldi	r22, 0x05	; 5
     946:	88 e2       	ldi	r24, 0x28	; 40
     948:	0e 94 3e 04 	call	0x87c	; 0x87c <mcp_2515_write>
	mcp_2515_write(MCP_CNF2, BTLMODE | SAMPLE_3X | ((PS1 - 1) << 3) | (PROSEG - 1));
     94c:	61 ef       	ldi	r22, 0xF1	; 241
     94e:	89 e2       	ldi	r24, 0x29	; 41
     950:	0e 94 3e 04 	call	0x87c	; 0x87c <mcp_2515_write>
	mcp_2515_write(MCP_CNF1, SJW4 | (BRP-1));
     954:	61 ec       	ldi	r22, 0xC1	; 193
     956:	8a e2       	ldi	r24, 0x2A	; 42
     958:	0e 94 3e 04 	call	0x87c	; 0x87c <mcp_2515_write>
	#else
		//round up by default
		__ticks_dc = (uint32_t)(ceil(fabs(__tmp)));
	#endif

	__builtin_avr_delay_cycles(__ticks_dc);
     95c:	87 ea       	ldi	r24, 0xA7	; 167
     95e:	91 e6       	ldi	r25, 0x61	; 97
     960:	01 97       	sbiw	r24, 0x01	; 1
     962:	f1 f7       	brne	.-4      	; 0x960 <mcp_2515_init+0x2c>
     964:	00 c0       	rjmp	.+0      	; 0x966 <mcp_2515_init+0x32>
     966:	00 00       	nop
	
	_delay_ms(100);
	
	//enables reading of a can bit flag for IR sensor
	mcp_2515_bit_modify(MCP_CANINTE, 1, 1);
     968:	41 e0       	ldi	r20, 0x01	; 1
     96a:	61 e0       	ldi	r22, 0x01	; 1
     96c:	8b e2       	ldi	r24, 0x2B	; 43
     96e:	0e 94 66 04 	call	0x8cc	; 0x8cc <mcp_2515_bit_modify>

	printf("%x\r\n", mcp_2515_read(MCP_CNF1));
     972:	8a e2       	ldi	r24, 0x2A	; 42
     974:	0e 94 54 04 	call	0x8a8	; 0x8a8 <mcp_2515_read>
     978:	1f 92       	push	r1
     97a:	8f 93       	push	r24
     97c:	ca e1       	ldi	r28, 0x1A	; 26
     97e:	d1 e0       	ldi	r29, 0x01	; 1
     980:	df 93       	push	r29
     982:	cf 93       	push	r28
     984:	0e 94 86 08 	call	0x110c	; 0x110c <printf>
	printf("%x\r\n", mcp_2515_read(MCP_CNF2));
     988:	89 e2       	ldi	r24, 0x29	; 41
     98a:	0e 94 54 04 	call	0x8a8	; 0x8a8 <mcp_2515_read>
     98e:	1f 92       	push	r1
     990:	8f 93       	push	r24
     992:	df 93       	push	r29
     994:	cf 93       	push	r28
     996:	0e 94 86 08 	call	0x110c	; 0x110c <printf>
	printf("%x\r\n", mcp_2515_read(MCP_CNF3));
     99a:	88 e2       	ldi	r24, 0x28	; 40
     99c:	0e 94 54 04 	call	0x8a8	; 0x8a8 <mcp_2515_read>
     9a0:	1f 92       	push	r1
     9a2:	8f 93       	push	r24
     9a4:	df 93       	push	r29
     9a6:	cf 93       	push	r28
     9a8:	0e 94 86 08 	call	0x110c	; 0x110c <printf>
	
	
	mcp_2515_set_mode(mode);
     9ac:	81 2f       	mov	r24, r17
     9ae:	0e 94 95 04 	call	0x92a	; 0x92a <mcp_2515_set_mode>
}
     9b2:	8d b7       	in	r24, 0x3d	; 61
     9b4:	9e b7       	in	r25, 0x3e	; 62
     9b6:	0c 96       	adiw	r24, 0x0c	; 12
     9b8:	0f b6       	in	r0, 0x3f	; 63
     9ba:	f8 94       	cli
     9bc:	9e bf       	out	0x3e, r25	; 62
     9be:	0f be       	out	0x3f, r0	; 63
     9c0:	8d bf       	out	0x3d, r24	; 61
     9c2:	df 91       	pop	r29
     9c4:	cf 91       	pop	r28
     9c6:	1f 91       	pop	r17
     9c8:	08 95       	ret

000009ca <game_playing>:
extern Game game;
extern GAMEBOARD_VALUES Gameboard_values;
//static CAN_msg recieve_message;


void game_playing( void ){
     9ca:	0f 93       	push	r16
     9cc:	1f 93       	push	r17
     9ce:	cf 93       	push	r28
     9d0:	df 93       	push	r29
     9d2:	cd b7       	in	r28, 0x3d	; 61
     9d4:	de b7       	in	r29, 0x3e	; 62
     9d6:	2d 97       	sbiw	r28, 0x0d	; 13
     9d8:	0f b6       	in	r0, 0x3f	; 63
     9da:	f8 94       	cli
     9dc:	de bf       	out	0x3e, r29	; 62
     9de:	0f be       	out	0x3f, r0	; 63
     9e0:	cd bf       	out	0x3d, r28	; 61
	//initialiser arduiono og spill
	
	send_message.data[0] = 0;
     9e2:	e6 e0       	ldi	r30, 0x06	; 6
     9e4:	f1 e0       	ldi	r31, 0x01	; 1
     9e6:	13 82       	std	Z+3, r1	; 0x03
	send_message.data[1] = 0;
     9e8:	14 82       	std	Z+4, r1	; 0x04
	send_message.data[2] = 0;
     9ea:	15 82       	std	Z+5, r1	; 0x05
	send_message.data[3] = 0;
     9ec:	16 82       	std	Z+6, r1	; 0x06
	send_message.data[4] = 1;
     9ee:	81 e0       	ldi	r24, 0x01	; 1
     9f0:	87 83       	std	Z+7, r24	; 0x07
	send_message.data[0] = 0;
	CAN_transmit(&send_message);
     9f2:	cf 01       	movw	r24, r30
     9f4:	0e 94 ba 03 	call	0x774	; 0x774 <CAN_transmit>
	
	game.goals = 0;
     9f8:	01 e1       	ldi	r16, 0x11	; 17
     9fa:	11 e0       	ldi	r17, 0x01	; 1
     9fc:	f8 01       	movw	r30, r16
     9fe:	11 82       	std	Z+1, r1	; 0x01
	
	oled_reset();
     a00:	0e 94 e5 06 	call	0xdca	; 0xdca <oled_reset>
	oled_print("Goals: ", 8);
     a04:	68 e0       	ldi	r22, 0x08	; 8
     a06:	8f e1       	ldi	r24, 0x1F	; 31
     a08:	91 e0       	ldi	r25, 0x01	; 1
     a0a:	0e 94 bd 07 	call	0xf7a	; 0xf7a <oled_print>
	char buff[1];
	char* result = itoa(game.goals, buff, 10);
     a0e:	f8 01       	movw	r30, r16
     a10:	81 81       	ldd	r24, Z+1	; 0x01
    } else if (__radix < 2 || __radix > 36) {
	*__s = 0;
	return __s;
    } else {
	extern char *__itoa_ncheck (int, char *, unsigned char);
	return __itoa_ncheck (__val, __s, __radix);
     a12:	4a e0       	ldi	r20, 0x0A	; 10
     a14:	be 01       	movw	r22, r28
     a16:	6f 5f       	subi	r22, 0xFF	; 255
     a18:	7f 4f       	sbci	r23, 0xFF	; 255
     a1a:	90 e0       	ldi	r25, 0x00	; 0
     a1c:	0e 94 16 08 	call	0x102c	; 0x102c <__itoa_ncheck>
	oled_print(result, 8);
     a20:	68 e0       	ldi	r22, 0x08	; 8
     a22:	0e 94 bd 07 	call	0xf7a	; 0xf7a <oled_print>
	
	
		
	while (game.playing){
     a26:	54 c0       	rjmp	.+168    	; 0xad0 <game_playing+0x106>
		//adc sample -> send til node 2
		ADC_sample(&Gameboard_values);
     a28:	81 e9       	ldi	r24, 0x91	; 145
     a2a:	91 e0       	ldi	r25, 0x01	; 1
     a2c:	0e 94 90 03 	call	0x720	; 0x720 <ADC_sample>
		
		// bygge CAN-melding
		send_message.data[0] = Gameboard_values.joystick_x;
     a30:	a1 e9       	ldi	r26, 0x91	; 145
     a32:	b1 e0       	ldi	r27, 0x01	; 1
     a34:	8c 91       	ld	r24, X
     a36:	e6 e0       	ldi	r30, 0x06	; 6
     a38:	f1 e0       	ldi	r31, 0x01	; 1
     a3a:	83 83       	std	Z+3, r24	; 0x03
		send_message.data[1] = Gameboard_values.button_left;
     a3c:	11 96       	adiw	r26, 0x01	; 1
     a3e:	8c 91       	ld	r24, X
     a40:	11 97       	sbiw	r26, 0x01	; 1
     a42:	84 83       	std	Z+4, r24	; 0x04
		send_message.data[2] = Gameboard_values.slider_right;
     a44:	12 96       	adiw	r26, 0x02	; 2
     a46:	8c 91       	ld	r24, X
     a48:	12 97       	sbiw	r26, 0x02	; 2
     a4a:	85 83       	std	Z+5, r24	; 0x05
		send_message.data[3] = Gameboard_values.button_right;
     a4c:	13 96       	adiw	r26, 0x03	; 3
     a4e:	8c 91       	ld	r24, X
     a50:	86 83       	std	Z+6, r24	; 0x06
		
		// sende melding
		CAN_transmit(&send_message);
     a52:	cf 01       	movw	r24, r30
     a54:	0e 94 ba 03 	call	0x774	; 0x774 <CAN_transmit>
		
		// check for goal if new CAN message from node 2
		if (mcp_2515_read(MCP_CANINTF) & CANINTF_MASK){
     a58:	8c e2       	ldi	r24, 0x2C	; 44
     a5a:	0e 94 54 04 	call	0x8a8	; 0x8a8 <mcp_2515_read>
     a5e:	80 ff       	sbrs	r24, 0
     a60:	25 c0       	rjmp	.+74     	; 0xaac <game_playing+0xe2>
			printf("We have recieved a goal!! \n\r");
     a62:	87 e2       	ldi	r24, 0x27	; 39
     a64:	91 e0       	ldi	r25, 0x01	; 1
     a66:	9f 93       	push	r25
     a68:	8f 93       	push	r24
     a6a:	0e 94 86 08 	call	0x110c	; 0x110c <printf>
			CAN_receive();
     a6e:	ce 01       	movw	r24, r28
     a70:	03 96       	adiw	r24, 0x03	; 3
     a72:	0e 94 f2 03 	call	0x7e4	; 0x7e4 <CAN_receive>
			game.goals++;
     a76:	01 e1       	ldi	r16, 0x11	; 17
     a78:	11 e0       	ldi	r17, 0x01	; 1
     a7a:	f8 01       	movw	r30, r16
     a7c:	81 81       	ldd	r24, Z+1	; 0x01
     a7e:	8f 5f       	subi	r24, 0xFF	; 255
     a80:	81 83       	std	Z+1, r24	; 0x01
			
			oled_reset();
     a82:	0e 94 e5 06 	call	0xdca	; 0xdca <oled_reset>
			oled_print("Goals: ", 8);
     a86:	68 e0       	ldi	r22, 0x08	; 8
     a88:	8f e1       	ldi	r24, 0x1F	; 31
     a8a:	91 e0       	ldi	r25, 0x01	; 1
     a8c:	0e 94 bd 07 	call	0xf7a	; 0xf7a <oled_print>
			char buff[1];
			char* result = itoa(game.goals, buff, 10);
     a90:	f8 01       	movw	r30, r16
     a92:	81 81       	ldd	r24, Z+1	; 0x01
     a94:	4a e0       	ldi	r20, 0x0A	; 10
     a96:	be 01       	movw	r22, r28
     a98:	6e 5f       	subi	r22, 0xFE	; 254
     a9a:	7f 4f       	sbci	r23, 0xFF	; 255
     a9c:	90 e0       	ldi	r25, 0x00	; 0
     a9e:	0e 94 16 08 	call	0x102c	; 0x102c <__itoa_ncheck>
			oled_print(result, 8);
     aa2:	68 e0       	ldi	r22, 0x08	; 8
     aa4:	0e 94 bd 07 	call	0xf7a	; 0xf7a <oled_print>
     aa8:	0f 90       	pop	r0
     aaa:	0f 90       	pop	r0

		}

		
		// should we exit this state?
		if (game.goals > game.over || (Gameboard_values.button_left > 250)){
     aac:	e1 e1       	ldi	r30, 0x11	; 17
     aae:	f1 e0       	ldi	r31, 0x01	; 1
     ab0:	91 81       	ldd	r25, Z+1	; 0x01
     ab2:	82 81       	ldd	r24, Z+2	; 0x02
     ab4:	89 17       	cp	r24, r25
     ab6:	20 f0       	brcs	.+8      	; 0xac0 <game_playing+0xf6>
     ab8:	80 91 92 01 	lds	r24, 0x0192	; 0x800192 <Gameboard_values+0x1>
     abc:	8b 3f       	cpi	r24, 0xFB	; 251
     abe:	10 f0       	brcs	.+4      	; 0xac4 <game_playing+0xfa>
			game.playing = 0;
     ac0:	10 92 11 01 	sts	0x0111, r1	; 0x800111 <game>
     ac4:	87 e8       	ldi	r24, 0x87	; 135
     ac6:	93 e1       	ldi	r25, 0x13	; 19
     ac8:	01 97       	sbiw	r24, 0x01	; 1
     aca:	f1 f7       	brne	.-4      	; 0xac8 <game_playing+0xfe>
     acc:	00 c0       	rjmp	.+0      	; 0xace <game_playing+0x104>
     ace:	00 00       	nop
	char* result = itoa(game.goals, buff, 10);
	oled_print(result, 8);
	
	
		
	while (game.playing){
     ad0:	80 91 11 01 	lds	r24, 0x0111	; 0x800111 <game>
     ad4:	81 11       	cpse	r24, r1
     ad6:	a8 cf       	rjmp	.-176    	; 0xa28 <game_playing+0x5e>
		}
		_delay_ms(20);
	}
	
	//deaktivere arduino og spill
	send_message.data[4] = 0;
     ad8:	10 92 0d 01 	sts	0x010D, r1	; 0x80010d <send_message+0x7>
	CAN_transmit(&send_message);
     adc:	86 e0       	ldi	r24, 0x06	; 6
     ade:	91 e0       	ldi	r25, 0x01	; 1
     ae0:	0e 94 ba 03 	call	0x774	; 0x774 <CAN_transmit>
}
     ae4:	2d 96       	adiw	r28, 0x0d	; 13
     ae6:	0f b6       	in	r0, 0x3f	; 63
     ae8:	f8 94       	cli
     aea:	de bf       	out	0x3e, r29	; 62
     aec:	0f be       	out	0x3f, r0	; 63
     aee:	cd bf       	out	0x3d, r28	; 61
     af0:	df 91       	pop	r29
     af2:	cf 91       	pop	r28
     af4:	1f 91       	pop	r17
     af6:	0f 91       	pop	r16
     af8:	08 95       	ret

00000afa <__vector_3>:
	//enable INT2 in the General Interrupt Control Register (GICR)
	set_bit(GICR, INT2);
	
}

ISR(INT2_vect){
     afa:	1f 92       	push	r1
     afc:	0f 92       	push	r0
     afe:	0f b6       	in	r0, 0x3f	; 63
     b00:	0f 92       	push	r0
     b02:	11 24       	eor	r1, r1

     b04:	0f 90       	pop	r0
     b06:	0f be       	out	0x3f, r0	; 63
     b08:	0f 90       	pop	r0
     b0a:	1f 90       	pop	r1
     b0c:	18 95       	reti

00000b0e <joystick_handle>:

GAMEBOARD_VALUES Gameboard_values;

bool joystick_handle(){
	//printf("%u \n\r", Gameboard_values.joystick_x);
	switch(joystick_position){
     b0e:	80 91 90 01 	lds	r24, 0x0190	; 0x800190 <__data_end>
     b12:	81 30       	cpi	r24, 0x01	; 1
     b14:	99 f0       	breq	.+38     	; 0xb3c <joystick_handle+0x2e>
     b16:	18 f0       	brcs	.+6      	; 0xb1e <joystick_handle+0x10>
     b18:	82 30       	cpi	r24, 0x02	; 2
     b1a:	c1 f0       	breq	.+48     	; 0xb4c <joystick_handle+0x3e>
     b1c:	1f c0       	rjmp	.+62     	; 0xb5c <joystick_handle+0x4e>
		case Neutral:
			if(Gameboard_values.joystick_x > FROM_NEUTRAL_HIGH){
     b1e:	80 91 91 01 	lds	r24, 0x0191	; 0x800191 <Gameboard_values>
     b22:	8b 3f       	cpi	r24, 0xFB	; 251
     b24:	20 f0       	brcs	.+8      	; 0xb2e <joystick_handle+0x20>
				joystick_position = Right;
     b26:	81 e0       	ldi	r24, 0x01	; 1
     b28:	80 93 90 01 	sts	0x0190, r24	; 0x800190 <__data_end>
				return true;
     b2c:	08 95       	ret
			}
			if(Gameboard_values.joystick_x < FROM_NEUTRAL_LOW){
     b2e:	81 11       	cpse	r24, r1
     b30:	16 c0       	rjmp	.+44     	; 0xb5e <joystick_handle+0x50>
				joystick_position = Left;
     b32:	82 e0       	ldi	r24, 0x02	; 2
     b34:	80 93 90 01 	sts	0x0190, r24	; 0x800190 <__data_end>
				return true;
     b38:	81 e0       	ldi	r24, 0x01	; 1
     b3a:	08 95       	ret
			}
			return false;
		
		case Right:
			if(Gameboard_values.joystick_x < TO_NEUTRAL_HIGH){
     b3c:	80 91 91 01 	lds	r24, 0x0191	; 0x800191 <Gameboard_values>
     b40:	86 3e       	cpi	r24, 0xE6	; 230
     b42:	78 f4       	brcc	.+30     	; 0xb62 <joystick_handle+0x54>
				joystick_position = Neutral;
     b44:	10 92 90 01 	sts	0x0190, r1	; 0x800190 <__data_end>
			}
			return false;
     b48:	80 e0       	ldi	r24, 0x00	; 0
     b4a:	08 95       	ret
		
		case Left:
			if(Gameboard_values.joystick_x > TO_NEUTRAL_LOW){
     b4c:	80 91 91 01 	lds	r24, 0x0191	; 0x800191 <Gameboard_values>
     b50:	85 31       	cpi	r24, 0x15	; 21
     b52:	48 f0       	brcs	.+18     	; 0xb66 <joystick_handle+0x58>
				joystick_position = Neutral;
     b54:	10 92 90 01 	sts	0x0190, r1	; 0x800190 <__data_end>
			}
			return false;
     b58:	80 e0       	ldi	r24, 0x00	; 0
     b5a:	08 95       	ret
		
	}
}
     b5c:	08 95       	ret
			}
			if(Gameboard_values.joystick_x < FROM_NEUTRAL_LOW){
				joystick_position = Left;
				return true;
			}
			return false;
     b5e:	80 e0       	ldi	r24, 0x00	; 0
     b60:	08 95       	ret
		
		case Right:
			if(Gameboard_values.joystick_x < TO_NEUTRAL_HIGH){
				joystick_position = Neutral;
			}
			return false;
     b62:	80 e0       	ldi	r24, 0x00	; 0
     b64:	08 95       	ret
		
		case Left:
			if(Gameboard_values.joystick_x > TO_NEUTRAL_LOW){
				joystick_position = Neutral;
			}
			return false;
     b66:	80 e0       	ldi	r24, 0x00	; 0
		
	}
}
     b68:	08 95       	ret

00000b6a <joystick_print>:

void joystick_print(){
	switch(joystick_position){
     b6a:	80 91 90 01 	lds	r24, 0x0190	; 0x800190 <__data_end>
     b6e:	81 30       	cpi	r24, 0x01	; 1
     b70:	21 f0       	breq	.+8      	; 0xb7a <joystick_print+0x10>
     b72:	a8 f0       	brcs	.+42     	; 0xb9e <joystick_print+0x34>
     b74:	82 30       	cpi	r24, 0x02	; 2
     b76:	51 f0       	breq	.+20     	; 0xb8c <joystick_print+0x22>
     b78:	08 95       	ret
		case Right:
			printf("\n\rHøyre");
     b7a:	84 e4       	ldi	r24, 0x44	; 68
     b7c:	91 e0       	ldi	r25, 0x01	; 1
     b7e:	9f 93       	push	r25
     b80:	8f 93       	push	r24
     b82:	0e 94 86 08 	call	0x110c	; 0x110c <printf>
			break;
     b86:	0f 90       	pop	r0
     b88:	0f 90       	pop	r0
     b8a:	08 95       	ret
		case Left:
			printf("\n\rVenstre");
     b8c:	8c e4       	ldi	r24, 0x4C	; 76
     b8e:	91 e0       	ldi	r25, 0x01	; 1
     b90:	9f 93       	push	r25
     b92:	8f 93       	push	r24
     b94:	0e 94 86 08 	call	0x110c	; 0x110c <printf>
			break;
     b98:	0f 90       	pop	r0
     b9a:	0f 90       	pop	r0
     b9c:	08 95       	ret
		case Neutral:
			printf("\n\rNøytral");
     b9e:	86 e5       	ldi	r24, 0x56	; 86
     ba0:	91 e0       	ldi	r25, 0x01	; 1
     ba2:	9f 93       	push	r25
     ba4:	8f 93       	push	r24
     ba6:	0e 94 86 08 	call	0x110c	; 0x110c <printf>
			break;
     baa:	0f 90       	pop	r0
     bac:	0f 90       	pop	r0
     bae:	08 95       	ret

00000bb0 <main>:
extern CAN_msg send_message;

int main(void){
    // enable global interrupt flags
	//interrupt_init();
	USART_init(MYUBRR);
     bb0:	8f e1       	ldi	r24, 0x1F	; 31
     bb2:	90 e0       	ldi	r25, 0x00	; 0
     bb4:	0e 94 aa 03 	call	0x754	; 0x754 <USART_init>
	SRAM_init();
     bb8:	0e 94 0f 08 	call	0x101e	; 0x101e <SRAM_init>
	ADC_init();
     bbc:	0e 94 7f 03 	call	0x6fe	; 0x6fe <ADC_init>
	oled_init_program();
     bc0:	0e 94 ee 06 	call	0xddc	; 0xddc <oled_init_program>
	menu_init();
     bc4:	0e 94 9e 06 	call	0xd3c	; 0xd3c <menu_init>
	CAN_init(MODE_NORMAL);
     bc8:	80 e0       	ldi	r24, 0x00	; 0
     bca:	0e 94 b7 03 	call	0x76e	; 0x76e <CAN_init>
	menu_print();
     bce:	0e 94 35 06 	call	0xc6a	; 0xc6a <menu_print>
	
	while(1){
		
		if (game.playing){
     bd2:	80 91 11 01 	lds	r24, 0x0111	; 0x800111 <game>
     bd6:	88 23       	and	r24, r24
     bd8:	29 f0       	breq	.+10     	; 0xbe4 <main+0x34>
			game_playing();
     bda:	0e 94 e5 04 	call	0x9ca	; 0x9ca <game_playing>
			menu_print();
     bde:	0e 94 35 06 	call	0xc6a	; 0xc6a <menu_print>
     be2:	3c c0       	rjmp	.+120    	; 0xc5c <main+0xac>
		}
		
		else{
			ADC_sample(&Gameboard_values);
     be4:	81 e9       	ldi	r24, 0x91	; 145
     be6:	91 e0       	ldi	r25, 0x01	; 1
     be8:	0e 94 90 03 	call	0x720	; 0x720 <ADC_sample>
			if(joystick_handle()){
     bec:	0e 94 87 05 	call	0xb0e	; 0xb0e <joystick_handle>
     bf0:	88 23       	and	r24, r24
     bf2:	41 f0       	breq	.+16     	; 0xc04 <main+0x54>
				menu_navigate(joystick_position, glob_current_menu);
     bf4:	60 91 98 01 	lds	r22, 0x0198	; 0x800198 <glob_current_menu>
     bf8:	80 91 90 01 	lds	r24, 0x0190	; 0x800190 <__data_end>
     bfc:	0e 94 79 06 	call	0xcf2	; 0xcf2 <menu_navigate>
				menu_print();
     c00:	0e 94 35 06 	call	0xc6a	; 0xc6a <menu_print>
			}
			
			if (Gameboard_values.button_right > 200 && glob_current_menu_item == start_game){
     c04:	80 91 94 01 	lds	r24, 0x0194	; 0x800194 <Gameboard_values+0x3>
     c08:	89 3c       	cpi	r24, 0xC9	; 201
     c0a:	58 f0       	brcs	.+22     	; 0xc22 <main+0x72>
     c0c:	80 91 97 01 	lds	r24, 0x0197	; 0x800197 <glob_current_menu_item>
     c10:	81 11       	cpse	r24, r1
     c12:	07 c0       	rjmp	.+14     	; 0xc22 <main+0x72>
				game.playing = 1;
     c14:	81 e0       	ldi	r24, 0x01	; 1
     c16:	80 93 11 01 	sts	0x0111, r24	; 0x800111 <game>
				ADC_sample(&Gameboard_values);
     c1a:	81 e9       	ldi	r24, 0x91	; 145
     c1c:	91 e0       	ldi	r25, 0x01	; 1
     c1e:	0e 94 90 03 	call	0x720	; 0x720 <ADC_sample>
			}
			if (Gameboard_values.button_right > 200 && glob_current_menu_item == calibrate){
     c22:	80 91 94 01 	lds	r24, 0x0194	; 0x800194 <Gameboard_values+0x3>
     c26:	89 3c       	cpi	r24, 0xC9	; 201
     c28:	c8 f0       	brcs	.+50     	; 0xc5c <main+0xac>
     c2a:	80 91 97 01 	lds	r24, 0x0197	; 0x800197 <glob_current_menu_item>
     c2e:	82 30       	cpi	r24, 0x02	; 2
     c30:	a9 f4       	brne	.+42     	; 0xc5c <main+0xac>
				send_message.data[5] = 1;
     c32:	c6 e0       	ldi	r28, 0x06	; 6
     c34:	d1 e0       	ldi	r29, 0x01	; 1
     c36:	81 e0       	ldi	r24, 0x01	; 1
     c38:	88 87       	std	Y+8, r24	; 0x08
				CAN_transmit(&send_message);
     c3a:	ce 01       	movw	r24, r28
     c3c:	0e 94 ba 03 	call	0x774	; 0x774 <CAN_transmit>
				send_message.data[5] = 0;
     c40:	18 86       	std	Y+8, r1	; 0x08
     c42:	2f ef       	ldi	r18, 0xFF	; 255
     c44:	8f ef       	ldi	r24, 0xFF	; 255
     c46:	9e e0       	ldi	r25, 0x0E	; 14
     c48:	21 50       	subi	r18, 0x01	; 1
     c4a:	80 40       	sbci	r24, 0x00	; 0
     c4c:	90 40       	sbci	r25, 0x00	; 0
     c4e:	e1 f7       	brne	.-8      	; 0xc48 <main+0x98>
     c50:	00 c0       	rjmp	.+0      	; 0xc52 <main+0xa2>
     c52:	00 00       	nop
				_delay_ms(1000);
				ADC_sample(&Gameboard_values);
     c54:	81 e9       	ldi	r24, 0x91	; 145
     c56:	91 e0       	ldi	r25, 0x01	; 1
     c58:	0e 94 90 03 	call	0x720	; 0x720 <ADC_sample>
     c5c:	8f ef       	ldi	r24, 0xFF	; 255
     c5e:	9f e5       	ldi	r25, 0x5F	; 95
     c60:	01 97       	sbiw	r24, 0x01	; 1
     c62:	f1 f7       	brne	.-4      	; 0xc60 <main+0xb0>
     c64:	00 c0       	rjmp	.+0      	; 0xc66 <main+0xb6>
     c66:	00 00       	nop
     c68:	b4 cf       	rjmp	.-152    	; 0xbd2 <main+0x22>

00000c6a <menu_print>:
		
	}
	
}

void menu_print(){
     c6a:	cf 93       	push	r28
     c6c:	df 93       	push	r29
	oled_reset();
     c6e:	0e 94 e5 06 	call	0xdca	; 0xdca <oled_reset>
	oled_print("\t", 4);
     c72:	64 e0       	ldi	r22, 0x04	; 4
     c74:	80 e6       	ldi	r24, 0x60	; 96
     c76:	91 e0       	ldi	r25, 0x01	; 1
     c78:	0e 94 bd 07 	call	0xf7a	; 0xf7a <oled_print>
	oled_print("Main menu\n\n\r", 8);
     c7c:	68 e0       	ldi	r22, 0x08	; 8
     c7e:	82 e6       	ldi	r24, 0x62	; 98
     c80:	91 e0       	ldi	r25, 0x01	; 1
     c82:	0e 94 bd 07 	call	0xf7a	; 0xf7a <oled_print>
	for (uint8_t i = 0; i <= glob_menu_length.main_menu; i++){
     c86:	c0 e0       	ldi	r28, 0x00	; 0
     c88:	1d c0       	rjmp	.+58     	; 0xcc4 <menu_print+0x5a>
		uint8_t font_size = 5;
		if (i == glob_current_menu_item){
     c8a:	80 91 97 01 	lds	r24, 0x0197	; 0x800197 <glob_current_menu_item>
     c8e:	c8 17       	cp	r28, r24
     c90:	11 f0       	breq	.+4      	; 0xc96 <menu_print+0x2c>
void menu_print(){
	oled_reset();
	oled_print("\t", 4);
	oled_print("Main menu\n\n\r", 8);
	for (uint8_t i = 0; i <= glob_menu_length.main_menu; i++){
		uint8_t font_size = 5;
     c92:	d5 e0       	ldi	r29, 0x05	; 5
     c94:	01 c0       	rjmp	.+2      	; 0xc98 <menu_print+0x2e>
		if (i == glob_current_menu_item){
			font_size = 8;
     c96:	d8 e0       	ldi	r29, 0x08	; 8
		}
		
		oled_print("\t",4);
     c98:	64 e0       	ldi	r22, 0x04	; 4
     c9a:	80 e6       	ldi	r24, 0x60	; 96
     c9c:	91 e0       	ldi	r25, 0x01	; 1
     c9e:	0e 94 bd 07 	call	0xf7a	; 0xf7a <oled_print>
		oled_print(main_menu_str[i],font_size);
     ca2:	ec 2f       	mov	r30, r28
     ca4:	f0 e0       	ldi	r31, 0x00	; 0
     ca6:	ee 0f       	add	r30, r30
     ca8:	ff 1f       	adc	r31, r31
     caa:	ec 5e       	subi	r30, 0xEC	; 236
     cac:	fe 4f       	sbci	r31, 0xFE	; 254
     cae:	6d 2f       	mov	r22, r29
     cb0:	80 81       	ld	r24, Z
     cb2:	91 81       	ldd	r25, Z+1	; 0x01
     cb4:	0e 94 bd 07 	call	0xf7a	; 0xf7a <oled_print>
		oled_print("\n\r",font_size);
     cb8:	6d 2f       	mov	r22, r29
     cba:	8c e6       	ldi	r24, 0x6C	; 108
     cbc:	91 e0       	ldi	r25, 0x01	; 1
     cbe:	0e 94 bd 07 	call	0xf7a	; 0xf7a <oled_print>

void menu_print(){
	oled_reset();
	oled_print("\t", 4);
	oled_print("Main menu\n\n\r", 8);
	for (uint8_t i = 0; i <= glob_menu_length.main_menu; i++){
     cc2:	cf 5f       	subi	r28, 0xFF	; 255
     cc4:	80 91 99 01 	lds	r24, 0x0199	; 0x800199 <glob_menu_length>
     cc8:	8c 17       	cp	r24, r28
     cca:	f8 f6       	brcc	.-66     	; 0xc8a <menu_print+0x20>
		
		oled_print("\t",4);
		oled_print(main_menu_str[i],font_size);
		oled_print("\n\r",font_size);
	}
	oled_goto_line(2 + glob_current_menu_item);
     ccc:	80 91 97 01 	lds	r24, 0x0197	; 0x800197 <glob_current_menu_item>
     cd0:	8e 5f       	subi	r24, 0xFE	; 254
     cd2:	0e 94 ac 06 	call	0xd58	; 0xd58 <oled_goto_line>
	oled_print("->", 8);
     cd6:	68 e0       	ldi	r22, 0x08	; 8
     cd8:	8f e6       	ldi	r24, 0x6F	; 111
     cda:	91 e0       	ldi	r25, 0x01	; 1
     cdc:	0e 94 bd 07 	call	0xf7a	; 0xf7a <oled_print>
}
     ce0:	df 91       	pop	r29
     ce2:	cf 91       	pop	r28
     ce4:	08 95       	ret

00000ce6 <get_menu_length>:

 
uint8_t get_menu_length(Menu current_menu){
	switch (current_menu){
     ce6:	81 11       	cpse	r24, r1
     ce8:	03 c0       	rjmp	.+6      	; 0xcf0 <get_menu_length+0xa>
		case main_menu:
			return glob_menu_length.main_menu;
     cea:	80 91 99 01 	lds	r24, 0x0199	; 0x800199 <glob_menu_length>
     cee:	08 95       	ret
	}
}
     cf0:	08 95       	ret

00000cf2 <menu_navigate>:

#include "menu.h"

char* main_menu_str [3] = {"Play", "Highscore", "Calibrate"};

void menu_navigate(JoystickPosition joystick_pos, Menu current_menu){
     cf2:	cf 93       	push	r28
     cf4:	df 93       	push	r29
     cf6:	c8 2f       	mov	r28, r24
     cf8:	86 2f       	mov	r24, r22
	uint8_t menu_length = get_menu_length(current_menu);
     cfa:	0e 94 73 06 	call	0xce6	; 0xce6 <get_menu_length>
     cfe:	d8 2f       	mov	r29, r24
	
	joystick_print();
     d00:	0e 94 b5 05 	call	0xb6a	; 0xb6a <joystick_print>
	switch (joystick_pos){
     d04:	c1 30       	cpi	r28, 0x01	; 1
     d06:	69 f0       	breq	.+26     	; 0xd22 <menu_navigate+0x30>
     d08:	c2 30       	cpi	r28, 0x02	; 2
     d0a:	a9 f4       	brne	.+42     	; 0xd36 <menu_navigate+0x44>
		case Left:
			if (glob_current_menu_item == 0){
     d0c:	80 91 97 01 	lds	r24, 0x0197	; 0x800197 <glob_current_menu_item>
     d10:	81 11       	cpse	r24, r1
     d12:	03 c0       	rjmp	.+6      	; 0xd1a <menu_navigate+0x28>
				glob_current_menu_item = menu_length;
     d14:	d0 93 97 01 	sts	0x0197, r29	; 0x800197 <glob_current_menu_item>
				break;
     d18:	0e c0       	rjmp	.+28     	; 0xd36 <menu_navigate+0x44>
			}
			glob_current_menu_item -= 1;
     d1a:	81 50       	subi	r24, 0x01	; 1
     d1c:	80 93 97 01 	sts	0x0197, r24	; 0x800197 <glob_current_menu_item>
			break;
     d20:	0a c0       	rjmp	.+20     	; 0xd36 <menu_navigate+0x44>
		case Right:
			if (glob_current_menu_item == menu_length){
     d22:	80 91 97 01 	lds	r24, 0x0197	; 0x800197 <glob_current_menu_item>
     d26:	d8 13       	cpse	r29, r24
     d28:	03 c0       	rjmp	.+6      	; 0xd30 <menu_navigate+0x3e>
				glob_current_menu_item = 0;
     d2a:	10 92 97 01 	sts	0x0197, r1	; 0x800197 <glob_current_menu_item>
				break;
     d2e:	03 c0       	rjmp	.+6      	; 0xd36 <menu_navigate+0x44>
			}
			glob_current_menu_item += 1;
     d30:	8f 5f       	subi	r24, 0xFF	; 255
     d32:	80 93 97 01 	sts	0x0197, r24	; 0x800197 <glob_current_menu_item>
		case Neutral:
			break;
		
	}
	
}
     d36:	df 91       	pop	r29
     d38:	cf 91       	pop	r28
     d3a:	08 95       	ret

00000d3c <menu_init>:
	}
}


void menu_init(){
	glob_menu_length.main_menu = 2;
     d3c:	82 e0       	ldi	r24, 0x02	; 2
     d3e:	80 93 99 01 	sts	0x0199, r24	; 0x800199 <glob_menu_length>
	glob_current_menu_item = 0;
     d42:	10 92 97 01 	sts	0x0197, r1	; 0x800197 <glob_current_menu_item>
	glob_current_menu = main_menu;
     d46:	10 92 98 01 	sts	0x0198, r1	; 0x800198 <glob_current_menu>
     d4a:	08 95       	ret

00000d4c <oled_write_command>:
}

void oled_pos(uint8_t line, uint8_t column){
	oled_goto_line(line);
	oled_goto_column(column);
}
     d4c:	80 93 00 10 	sts	0x1000, r24	; 0x801000 <__bss_end+0xe5c>
     d50:	08 95       	ret

00000d52 <oled_write_data>:
     d52:	80 93 00 12 	sts	0x1200, r24	; 0x801200 <__bss_end+0x105c>
     d56:	08 95       	ret

00000d58 <oled_goto_line>:
     d58:	cf 93       	push	r28
     d5a:	c8 2f       	mov	r28, r24
     d5c:	80 eb       	ldi	r24, 0xB0	; 176
     d5e:	8c 0f       	add	r24, r28
     d60:	0e 94 a6 06 	call	0xd4c	; 0xd4c <oled_write_command>
     d64:	c0 93 96 01 	sts	0x0196, r28	; 0x800196 <glob_current_line>
     d68:	cf 91       	pop	r28
     d6a:	08 95       	ret

00000d6c <oled_goto_column>:
     d6c:	cf 93       	push	r28
     d6e:	c8 2f       	mov	r28, r24
     d70:	8f 70       	andi	r24, 0x0F	; 15
     d72:	0e 94 a6 06 	call	0xd4c	; 0xd4c <oled_write_command>
     d76:	8c 2f       	mov	r24, r28
     d78:	82 95       	swap	r24
     d7a:	8f 70       	andi	r24, 0x0F	; 15
     d7c:	80 5f       	subi	r24, 0xF0	; 240
     d7e:	0e 94 a6 06 	call	0xd4c	; 0xd4c <oled_write_command>
     d82:	c0 93 95 01 	sts	0x0195, r28	; 0x800195 <glob_current_column>
     d86:	cf 91       	pop	r28
     d88:	08 95       	ret

00000d8a <oled_clear_line>:

void oled_clear_line(uint8_t line){
     d8a:	cf 93       	push	r28
     d8c:	df 93       	push	r29
	oled_goto_line(line);
     d8e:	0e 94 ac 06 	call	0xd58	; 0xd58 <oled_goto_line>
	for(int col = 0; col < 128; col++){
     d92:	c0 e0       	ldi	r28, 0x00	; 0
     d94:	d0 e0       	ldi	r29, 0x00	; 0
     d96:	04 c0       	rjmp	.+8      	; 0xda0 <oled_clear_line+0x16>
		oled_write_data(0);
     d98:	80 e0       	ldi	r24, 0x00	; 0
     d9a:	0e 94 a9 06 	call	0xd52	; 0xd52 <oled_write_data>
	oled_goto_column(column);
}

void oled_clear_line(uint8_t line){
	oled_goto_line(line);
	for(int col = 0; col < 128; col++){
     d9e:	21 96       	adiw	r28, 0x01	; 1
     da0:	c0 38       	cpi	r28, 0x80	; 128
     da2:	d1 05       	cpc	r29, r1
     da4:	cc f3       	brlt	.-14     	; 0xd98 <oled_clear_line+0xe>
		oled_write_data(0);
	}
}
     da6:	df 91       	pop	r29
     da8:	cf 91       	pop	r28
     daa:	08 95       	ret

00000dac <oled_clear_screen>:
	oled_write_command(column & (0b1111));
	oled_write_command(0x10 + (column >> 4));
	
	glob_current_column = column;
}
void oled_clear_screen(){
     dac:	cf 93       	push	r28
     dae:	df 93       	push	r29
	for(int line = 0; line < 8; line++){
     db0:	c0 e0       	ldi	r28, 0x00	; 0
     db2:	d0 e0       	ldi	r29, 0x00	; 0
     db4:	04 c0       	rjmp	.+8      	; 0xdbe <oled_clear_screen+0x12>
		oled_clear_line(line);
     db6:	8c 2f       	mov	r24, r28
     db8:	0e 94 c5 06 	call	0xd8a	; 0xd8a <oled_clear_line>
	oled_write_command(0x10 + (column >> 4));
	
	glob_current_column = column;
}
void oled_clear_screen(){
	for(int line = 0; line < 8; line++){
     dbc:	21 96       	adiw	r28, 0x01	; 1
     dbe:	c8 30       	cpi	r28, 0x08	; 8
     dc0:	d1 05       	cpc	r29, r1
     dc2:	cc f3       	brlt	.-14     	; 0xdb6 <oled_clear_screen+0xa>
		oled_clear_line(line);
	}
}
     dc4:	df 91       	pop	r29
     dc6:	cf 91       	pop	r28
     dc8:	08 95       	ret

00000dca <oled_reset>:

void oled_reset(){
	oled_clear_screen();
     dca:	0e 94 d6 06 	call	0xdac	; 0xdac <oled_clear_screen>
	oled_goto_line(0);
     dce:	80 e0       	ldi	r24, 0x00	; 0
     dd0:	0e 94 ac 06 	call	0xd58	; 0xd58 <oled_goto_line>
	oled_goto_column(0);
     dd4:	80 e0       	ldi	r24, 0x00	; 0
     dd6:	0e 94 b6 06 	call	0xd6c	; 0xd6c <oled_goto_column>
     dda:	08 95       	ret

00000ddc <oled_init_program>:
	oled_data = data;
}

void oled_init_program()
{
	oled_write_command(0xae); // display off
     ddc:	8e ea       	ldi	r24, 0xAE	; 174
     dde:	0e 94 a6 06 	call	0xd4c	; 0xd4c <oled_write_command>
	oled_write_command(0xa1); //segment remap
     de2:	81 ea       	ldi	r24, 0xA1	; 161
     de4:	0e 94 a6 06 	call	0xd4c	; 0xd4c <oled_write_command>
	oled_write_command(0xda); //common pads hardware: alternative
     de8:	8a ed       	ldi	r24, 0xDA	; 218
     dea:	0e 94 a6 06 	call	0xd4c	; 0xd4c <oled_write_command>
	oled_write_command(0x12);
     dee:	82 e1       	ldi	r24, 0x12	; 18
     df0:	0e 94 a6 06 	call	0xd4c	; 0xd4c <oled_write_command>
	oled_write_command(0xc8); //common output scan direction:com63~com0
     df4:	88 ec       	ldi	r24, 0xC8	; 200
     df6:	0e 94 a6 06 	call	0xd4c	; 0xd4c <oled_write_command>
	oled_write_command(0xa8); //multiplex ration mode:63
     dfa:	88 ea       	ldi	r24, 0xA8	; 168
     dfc:	0e 94 a6 06 	call	0xd4c	; 0xd4c <oled_write_command>
	oled_write_command(0x3f);
     e00:	8f e3       	ldi	r24, 0x3F	; 63
     e02:	0e 94 a6 06 	call	0xd4c	; 0xd4c <oled_write_command>
	oled_write_command(0xd5); //display divide ratio/osc. freq. mode
     e06:	85 ed       	ldi	r24, 0xD5	; 213
     e08:	0e 94 a6 06 	call	0xd4c	; 0xd4c <oled_write_command>
	oled_write_command(0x80);
     e0c:	80 e8       	ldi	r24, 0x80	; 128
     e0e:	0e 94 a6 06 	call	0xd4c	; 0xd4c <oled_write_command>
	oled_write_command(0x81); //contrast control
     e12:	81 e8       	ldi	r24, 0x81	; 129
     e14:	0e 94 a6 06 	call	0xd4c	; 0xd4c <oled_write_command>
	oled_write_command(0x50);
     e18:	80 e5       	ldi	r24, 0x50	; 80
     e1a:	0e 94 a6 06 	call	0xd4c	; 0xd4c <oled_write_command>
	oled_write_command(0xd9); //set pre-charge period
     e1e:	89 ed       	ldi	r24, 0xD9	; 217
     e20:	0e 94 a6 06 	call	0xd4c	; 0xd4c <oled_write_command>
	oled_write_command(0x21);
     e24:	81 e2       	ldi	r24, 0x21	; 33
     e26:	0e 94 a6 06 	call	0xd4c	; 0xd4c <oled_write_command>
	oled_write_command(0x20); //Set Memory Addressing Mode
     e2a:	80 e2       	ldi	r24, 0x20	; 32
     e2c:	0e 94 a6 06 	call	0xd4c	; 0xd4c <oled_write_command>
	oled_write_command(0x02);
     e30:	82 e0       	ldi	r24, 0x02	; 2
     e32:	0e 94 a6 06 	call	0xd4c	; 0xd4c <oled_write_command>
	oled_write_command(0xdb); //VCOM deselect level mode
     e36:	8b ed       	ldi	r24, 0xDB	; 219
     e38:	0e 94 a6 06 	call	0xd4c	; 0xd4c <oled_write_command>
	oled_write_command(0x30);
     e3c:	80 e3       	ldi	r24, 0x30	; 48
     e3e:	0e 94 a6 06 	call	0xd4c	; 0xd4c <oled_write_command>
	oled_write_command(0xad); //master configuration
     e42:	8d ea       	ldi	r24, 0xAD	; 173
     e44:	0e 94 a6 06 	call	0xd4c	; 0xd4c <oled_write_command>
	oled_write_command(0x00);
     e48:	80 e0       	ldi	r24, 0x00	; 0
     e4a:	0e 94 a6 06 	call	0xd4c	; 0xd4c <oled_write_command>
	oled_write_command(0xa4); //out follows RAM content
     e4e:	84 ea       	ldi	r24, 0xA4	; 164
     e50:	0e 94 a6 06 	call	0xd4c	; 0xd4c <oled_write_command>
	oled_write_command(0xa6); //set normal display
     e54:	86 ea       	ldi	r24, 0xA6	; 166
     e56:	0e 94 a6 06 	call	0xd4c	; 0xd4c <oled_write_command>
	oled_write_command(0xaf); // display on
     e5a:	8f ea       	ldi	r24, 0xAF	; 175
     e5c:	0e 94 a6 06 	call	0xd4c	; 0xd4c <oled_write_command>
	
	oled_reset();
     e60:	0e 94 e5 06 	call	0xdca	; 0xdca <oled_reset>
     e64:	08 95       	ret

00000e66 <oled_increment_page_index>:
		oled_putchar(message[index], font_size);
	}
}

void oled_increment_page_index(){
	if(glob_current_line == MAX_LINE){
     e66:	80 91 96 01 	lds	r24, 0x0196	; 0x800196 <glob_current_line>
     e6a:	87 30       	cpi	r24, 0x07	; 7
     e6c:	21 f4       	brne	.+8      	; 0xe76 <oled_increment_page_index+0x10>
		oled_goto_line(0);
     e6e:	80 e0       	ldi	r24, 0x00	; 0
     e70:	0e 94 ac 06 	call	0xd58	; 0xd58 <oled_goto_line>
		return;
     e74:	08 95       	ret
	}
	oled_goto_line(glob_current_line + 1);
     e76:	8f 5f       	subi	r24, 0xFF	; 255
     e78:	0e 94 ac 06 	call	0xd58	; 0xd58 <oled_goto_line>
     e7c:	08 95       	ret

00000e7e <oled_putchar>:
	for(int col = 0; col < 128; col++){
		oled_write_data(0);
	}
}

void oled_putchar(const char ch, uint8_t font_size){
     e7e:	0f 93       	push	r16
     e80:	1f 93       	push	r17
     e82:	cf 93       	push	r28
     e84:	df 93       	push	r29
     e86:	d8 2f       	mov	r29, r24
     e88:	c6 2f       	mov	r28, r22
	switch (ch){
     e8a:	8a 30       	cpi	r24, 0x0A	; 10
     e8c:	29 f0       	breq	.+10     	; 0xe98 <oled_putchar+0x1a>
     e8e:	8d 30       	cpi	r24, 0x0D	; 13
     e90:	31 f0       	breq	.+12     	; 0xe9e <oled_putchar+0x20>
     e92:	89 30       	cpi	r24, 0x09	; 9
     e94:	a9 f4       	brne	.+42     	; 0xec0 <oled_putchar+0x42>
     e96:	0e c0       	rjmp	.+28     	; 0xeb4 <oled_putchar+0x36>
		case '\n':
			oled_increment_page_index();
     e98:	0e 94 33 07 	call	0xe66	; 0xe66 <oled_increment_page_index>
			break;
     e9c:	69 c0       	rjmp	.+210    	; 0xf70 <oled_putchar+0xf2>
		case '\r':
			oled_goto_column(0);
     e9e:	80 e0       	ldi	r24, 0x00	; 0
     ea0:	0e 94 b6 06 	call	0xd6c	; 0xd6c <oled_goto_column>
			break;
     ea4:	65 c0       	rjmp	.+202    	; 0xf70 <oled_putchar+0xf2>
		case '\t':
			for (int i = 0; i < 4; i++){
				oled_putchar(' ', font_size);
     ea6:	6c 2f       	mov	r22, r28
     ea8:	80 e2       	ldi	r24, 0x20	; 32
     eaa:	0e 94 3f 07 	call	0xe7e	; 0xe7e <oled_putchar>
			break;
		case '\r':
			oled_goto_column(0);
			break;
		case '\t':
			for (int i = 0; i < 4; i++){
     eae:	0f 5f       	subi	r16, 0xFF	; 255
     eb0:	1f 4f       	sbci	r17, 0xFF	; 255
     eb2:	02 c0       	rjmp	.+4      	; 0xeb8 <oled_putchar+0x3a>
		oled_write_data(0);
	}
}

void oled_putchar(const char ch, uint8_t font_size){
	switch (ch){
     eb4:	00 e0       	ldi	r16, 0x00	; 0
     eb6:	10 e0       	ldi	r17, 0x00	; 0
			break;
		case '\r':
			oled_goto_column(0);
			break;
		case '\t':
			for (int i = 0; i < 4; i++){
     eb8:	04 30       	cpi	r16, 0x04	; 4
     eba:	11 05       	cpc	r17, r1
     ebc:	a4 f3       	brlt	.-24     	; 0xea6 <oled_putchar+0x28>
     ebe:	58 c0       	rjmp	.+176    	; 0xf70 <oled_putchar+0xf2>
				oled_putchar(' ', font_size);
			}
			break;
	
	default:
		if(glob_current_column + font_size > 127){
     ec0:	20 91 95 01 	lds	r18, 0x0195	; 0x800195 <glob_current_column>
     ec4:	86 2f       	mov	r24, r22
     ec6:	90 e0       	ldi	r25, 0x00	; 0
     ec8:	82 0f       	add	r24, r18
     eca:	91 1d       	adc	r25, r1
     ecc:	80 38       	cpi	r24, 0x80	; 128
     ece:	91 05       	cpc	r25, r1
     ed0:	2c f0       	brlt	.+10     	; 0xedc <oled_putchar+0x5e>
			oled_increment_page_index();
     ed2:	0e 94 33 07 	call	0xe66	; 0xe66 <oled_increment_page_index>
			oled_goto_column(0);
     ed6:	80 e0       	ldi	r24, 0x00	; 0
     ed8:	0e 94 b6 06 	call	0xd6c	; 0xd6c <oled_goto_column>
		}
		if(font_size == 4){
     edc:	c4 30       	cpi	r28, 0x04	; 4
     ede:	a9 f4       	brne	.+42     	; 0xf0a <oled_putchar+0x8c>
     ee0:	10 c0       	rjmp	.+32     	; 0xf02 <oled_putchar+0x84>
			for(uint8_t column = 0; column < font_size; column++){
				oled_write_data(pgm_read_byte(&(font4[ch - 32][column])));
     ee2:	ed 2f       	mov	r30, r29
     ee4:	f0 e0       	ldi	r31, 0x00	; 0
     ee6:	b0 97       	sbiw	r30, 0x20	; 32
     ee8:	ee 0f       	add	r30, r30
     eea:	ff 1f       	adc	r31, r31
     eec:	ee 0f       	add	r30, r30
     eee:	ff 1f       	adc	r31, r31
     ef0:	e1 0f       	add	r30, r17
     ef2:	f1 1d       	adc	r31, r1
     ef4:	e0 59       	subi	r30, 0x90	; 144
     ef6:	ff 4f       	sbci	r31, 0xFF	; 255
     ef8:	84 91       	lpm	r24, Z
     efa:	0e 94 a9 06 	call	0xd52	; 0xd52 <oled_write_data>
		if(glob_current_column + font_size > 127){
			oled_increment_page_index();
			oled_goto_column(0);
		}
		if(font_size == 4){
			for(uint8_t column = 0; column < font_size; column++){
     efe:	1f 5f       	subi	r17, 0xFF	; 255
     f00:	01 c0       	rjmp	.+2      	; 0xf04 <oled_putchar+0x86>
     f02:	10 e0       	ldi	r17, 0x00	; 0
     f04:	1c 17       	cp	r17, r28
     f06:	68 f3       	brcs	.-38     	; 0xee2 <oled_putchar+0x64>
     f08:	2e c0       	rjmp	.+92     	; 0xf66 <oled_putchar+0xe8>
				oled_write_data(pgm_read_byte(&(font4[ch - 32][column])));
			}
		}
		else if(font_size == 5){
     f0a:	c5 30       	cpi	r28, 0x05	; 5
     f0c:	a9 f0       	breq	.+42     	; 0xf38 <oled_putchar+0xba>
     f0e:	10 e0       	ldi	r17, 0x00	; 0
     f10:	28 c0       	rjmp	.+80     	; 0xf62 <oled_putchar+0xe4>
			for(uint8_t column = 0; column < font_size; column++){
				oled_write_data(pgm_read_byte(&(font5[ch - 32][column])));
     f12:	8d 2f       	mov	r24, r29
     f14:	90 e0       	ldi	r25, 0x00	; 0
     f16:	80 97       	sbiw	r24, 0x20	; 32
     f18:	fc 01       	movw	r30, r24
     f1a:	ee 0f       	add	r30, r30
     f1c:	ff 1f       	adc	r31, r31
     f1e:	ee 0f       	add	r30, r30
     f20:	ff 1f       	adc	r31, r31
     f22:	e8 0f       	add	r30, r24
     f24:	f9 1f       	adc	r31, r25
     f26:	e1 0f       	add	r30, r17
     f28:	f1 1d       	adc	r31, r1
     f2a:	e4 51       	subi	r30, 0x14	; 20
     f2c:	fe 4f       	sbci	r31, 0xFE	; 254
     f2e:	84 91       	lpm	r24, Z
     f30:	0e 94 a9 06 	call	0xd52	; 0xd52 <oled_write_data>
			for(uint8_t column = 0; column < font_size; column++){
				oled_write_data(pgm_read_byte(&(font4[ch - 32][column])));
			}
		}
		else if(font_size == 5){
			for(uint8_t column = 0; column < font_size; column++){
     f34:	1f 5f       	subi	r17, 0xFF	; 255
     f36:	01 c0       	rjmp	.+2      	; 0xf3a <oled_putchar+0xbc>
     f38:	10 e0       	ldi	r17, 0x00	; 0
     f3a:	1c 17       	cp	r17, r28
     f3c:	50 f3       	brcs	.-44     	; 0xf12 <oled_putchar+0x94>
     f3e:	13 c0       	rjmp	.+38     	; 0xf66 <oled_putchar+0xe8>
				oled_write_data(pgm_read_byte(&(font5[ch - 32][column])));
			}
		}
		else{
			for(uint8_t column = 0; column < font_size; column++){
				oled_write_data(pgm_read_byte(&(font8[ch - 32][column])));
     f40:	ed 2f       	mov	r30, r29
     f42:	f0 e0       	ldi	r31, 0x00	; 0
     f44:	b0 97       	sbiw	r30, 0x20	; 32
     f46:	ee 0f       	add	r30, r30
     f48:	ff 1f       	adc	r31, r31
     f4a:	ee 0f       	add	r30, r30
     f4c:	ff 1f       	adc	r31, r31
     f4e:	ee 0f       	add	r30, r30
     f50:	ff 1f       	adc	r31, r31
     f52:	e1 0f       	add	r30, r17
     f54:	f1 1d       	adc	r31, r1
     f56:	e9 53       	subi	r30, 0x39	; 57
     f58:	fc 4f       	sbci	r31, 0xFC	; 252
     f5a:	84 91       	lpm	r24, Z
     f5c:	0e 94 a9 06 	call	0xd52	; 0xd52 <oled_write_data>
			for(uint8_t column = 0; column < font_size; column++){
				oled_write_data(pgm_read_byte(&(font5[ch - 32][column])));
			}
		}
		else{
			for(uint8_t column = 0; column < font_size; column++){
     f60:	1f 5f       	subi	r17, 0xFF	; 255
     f62:	1c 17       	cp	r17, r28
     f64:	68 f3       	brcs	.-38     	; 0xf40 <oled_putchar+0xc2>
				oled_write_data(pgm_read_byte(&(font8[ch - 32][column])));
			}
		}
		glob_current_column += font_size;
     f66:	80 91 95 01 	lds	r24, 0x0195	; 0x800195 <glob_current_column>
     f6a:	c8 0f       	add	r28, r24
     f6c:	c0 93 95 01 	sts	0x0195, r28	; 0x800195 <glob_current_column>
	}
}
     f70:	df 91       	pop	r29
     f72:	cf 91       	pop	r28
     f74:	1f 91       	pop	r17
     f76:	0f 91       	pop	r16
     f78:	08 95       	ret

00000f7a <oled_print>:

void oled_print(const char* message, uint8_t font_size){
     f7a:	ef 92       	push	r14
     f7c:	ff 92       	push	r15
     f7e:	0f 93       	push	r16
     f80:	1f 93       	push	r17
     f82:	cf 93       	push	r28
     f84:	df 93       	push	r29
     f86:	7c 01       	movw	r14, r24
     f88:	d6 2f       	mov	r29, r22

	size_t size = strlen(message);
     f8a:	fc 01       	movw	r30, r24
     f8c:	01 90       	ld	r0, Z+
     f8e:	00 20       	and	r0, r0
     f90:	e9 f7       	brne	.-6      	; 0xf8c <oled_print+0x12>
     f92:	31 97       	sbiw	r30, 0x01	; 1
     f94:	8f 01       	movw	r16, r30
     f96:	08 1b       	sub	r16, r24
     f98:	19 0b       	sbc	r17, r25
	
	printf("\n\r%s", message);
     f9a:	ff 92       	push	r15
     f9c:	8f 93       	push	r24
     f9e:	8b e8       	ldi	r24, 0x8B	; 139
     fa0:	91 e0       	ldi	r25, 0x01	; 1
     fa2:	9f 93       	push	r25
     fa4:	8f 93       	push	r24
     fa6:	0e 94 86 08 	call	0x110c	; 0x110c <printf>
	
	for(uint8_t index = 0; index < size; index++){
     faa:	0f 90       	pop	r0
     fac:	0f 90       	pop	r0
     fae:	0f 90       	pop	r0
     fb0:	0f 90       	pop	r0
     fb2:	c0 e0       	ldi	r28, 0x00	; 0
     fb4:	08 c0       	rjmp	.+16     	; 0xfc6 <oled_print+0x4c>
		oled_putchar(message[index], font_size);
     fb6:	f7 01       	movw	r30, r14
     fb8:	e8 0f       	add	r30, r24
     fba:	f9 1f       	adc	r31, r25
     fbc:	6d 2f       	mov	r22, r29
     fbe:	80 81       	ld	r24, Z
     fc0:	0e 94 3f 07 	call	0xe7e	; 0xe7e <oled_putchar>

	size_t size = strlen(message);
	
	printf("\n\r%s", message);
	
	for(uint8_t index = 0; index < size; index++){
     fc4:	cf 5f       	subi	r28, 0xFF	; 255
     fc6:	8c 2f       	mov	r24, r28
     fc8:	90 e0       	ldi	r25, 0x00	; 0
     fca:	80 17       	cp	r24, r16
     fcc:	91 07       	cpc	r25, r17
     fce:	98 f3       	brcs	.-26     	; 0xfb6 <oled_print+0x3c>
		oled_putchar(message[index], font_size);
	}
}
     fd0:	df 91       	pop	r29
     fd2:	cf 91       	pop	r28
     fd4:	1f 91       	pop	r17
     fd6:	0f 91       	pop	r16
     fd8:	ff 90       	pop	r15
     fda:	ef 90       	pop	r14
     fdc:	08 95       	ret

00000fde <spi_init>:
#include "SPI.h"

void spi_init(void){
	/* Set SCL, MOSI & PB4 to output, MISO and the rest to input */

	set_bit(DDRB, PB5);
     fde:	87 b3       	in	r24, 0x17	; 23
     fe0:	80 62       	ori	r24, 0x20	; 32
     fe2:	87 bb       	out	0x17, r24	; 23
	set_bit(DDRB, PB7);
     fe4:	87 b3       	in	r24, 0x17	; 23
     fe6:	80 68       	ori	r24, 0x80	; 128
     fe8:	87 bb       	out	0x17, r24	; 23
	set_bit(DDRB, PB4);
     fea:	87 b3       	in	r24, 0x17	; 23
     fec:	80 61       	ori	r24, 0x10	; 16
     fee:	87 bb       	out	0x17, r24	; 23
	set_bit(PORTB, PB4);
     ff0:	88 b3       	in	r24, 0x18	; 24
     ff2:	80 61       	ori	r24, 0x10	; 16
     ff4:	88 bb       	out	0x18, r24	; 24
	
	/* Enable SPI, set it in Master and set clock*/

	set_bit(SPCR, SPE);
     ff6:	8d b1       	in	r24, 0x0d	; 13
     ff8:	80 64       	ori	r24, 0x40	; 64
     ffa:	8d b9       	out	0x0d, r24	; 13
	set_bit(SPCR, MSTR);
     ffc:	8d b1       	in	r24, 0x0d	; 13
     ffe:	80 61       	ori	r24, 0x10	; 16
    1000:	8d b9       	out	0x0d, r24	; 13
	set_bit(SPCR, SPR0);
    1002:	8d b1       	in	r24, 0x0d	; 13
    1004:	81 60       	ori	r24, 0x01	; 1
    1006:	8d b9       	out	0x0d, r24	; 13
    1008:	08 95       	ret

0000100a <spi_write>:
}

void spi_write(uint8_t data){
	/* Start transmission */

	SPDR = data;
    100a:	8f b9       	out	0x0f, r24	; 15
	/* Wait for transmission complete */
	loop_until_bit_is_set(SPSR, SPIF);
    100c:	77 9b       	sbis	0x0e, 7	; 14
    100e:	fe cf       	rjmp	.-4      	; 0x100c <spi_write+0x2>

}
    1010:	08 95       	ret

00001012 <spi_read>:

uint8_t spi_read(){
	
	SPDR = 0xFF;
    1012:	8f ef       	ldi	r24, 0xFF	; 255
    1014:	8f b9       	out	0x0f, r24	; 15
	
	loop_until_bit_is_set(SPSR, SPIF);
    1016:	77 9b       	sbis	0x0e, 7	; 14
    1018:	fe cf       	rjmp	.-4      	; 0x1016 <spi_read+0x4>
	
	return SPDR;
    101a:	8f b1       	in	r24, 0x0f	; 15
    101c:	08 95       	ret

0000101e <SRAM_init>:
	}
	printf("SRAM test completed with \n\r%4d errors in write phase and \n\r%4d errors in retrieval phase\n\n\r", write_errors, retrieval_errors);
}

void SRAM_init(){
	set_bit(MCUCR, SRE);
    101e:	85 b7       	in	r24, 0x35	; 53
    1020:	80 68       	ori	r24, 0x80	; 128
    1022:	85 bf       	out	0x35, r24	; 53
	set_bit(SFIOR, XMM2);
    1024:	80 b7       	in	r24, 0x30	; 48
    1026:	80 62       	ori	r24, 0x20	; 32
    1028:	80 bf       	out	0x30, r24	; 48
    102a:	08 95       	ret

0000102c <__itoa_ncheck>:
    102c:	bb 27       	eor	r27, r27
    102e:	4a 30       	cpi	r20, 0x0A	; 10
    1030:	31 f4       	brne	.+12     	; 0x103e <__itoa_ncheck+0x12>
    1032:	99 23       	and	r25, r25
    1034:	22 f4       	brpl	.+8      	; 0x103e <__itoa_ncheck+0x12>
    1036:	bd e2       	ldi	r27, 0x2D	; 45
    1038:	90 95       	com	r25
    103a:	81 95       	neg	r24
    103c:	9f 4f       	sbci	r25, 0xFF	; 255
    103e:	0c 94 22 08 	jmp	0x1044	; 0x1044 <__utoa_common>

00001042 <__utoa_ncheck>:
    1042:	bb 27       	eor	r27, r27

00001044 <__utoa_common>:
    1044:	fb 01       	movw	r30, r22
    1046:	55 27       	eor	r21, r21
    1048:	aa 27       	eor	r26, r26
    104a:	88 0f       	add	r24, r24
    104c:	99 1f       	adc	r25, r25
    104e:	aa 1f       	adc	r26, r26
    1050:	a4 17       	cp	r26, r20
    1052:	10 f0       	brcs	.+4      	; 0x1058 <__utoa_common+0x14>
    1054:	a4 1b       	sub	r26, r20
    1056:	83 95       	inc	r24
    1058:	50 51       	subi	r21, 0x10	; 16
    105a:	b9 f7       	brne	.-18     	; 0x104a <__utoa_common+0x6>
    105c:	a0 5d       	subi	r26, 0xD0	; 208
    105e:	aa 33       	cpi	r26, 0x3A	; 58
    1060:	08 f0       	brcs	.+2      	; 0x1064 <__utoa_common+0x20>
    1062:	a9 5d       	subi	r26, 0xD9	; 217
    1064:	a1 93       	st	Z+, r26
    1066:	00 97       	sbiw	r24, 0x00	; 0
    1068:	79 f7       	brne	.-34     	; 0x1048 <__utoa_common+0x4>
    106a:	b1 11       	cpse	r27, r1
    106c:	b1 93       	st	Z+, r27
    106e:	11 92       	st	Z+, r1
    1070:	cb 01       	movw	r24, r22
    1072:	0c 94 d7 0b 	jmp	0x17ae	; 0x17ae <strrev>

00001076 <fdevopen>:
    1076:	0f 93       	push	r16
    1078:	1f 93       	push	r17
    107a:	cf 93       	push	r28
    107c:	df 93       	push	r29
    107e:	00 97       	sbiw	r24, 0x00	; 0
    1080:	31 f4       	brne	.+12     	; 0x108e <fdevopen+0x18>
    1082:	61 15       	cp	r22, r1
    1084:	71 05       	cpc	r23, r1
    1086:	19 f4       	brne	.+6      	; 0x108e <fdevopen+0x18>
    1088:	80 e0       	ldi	r24, 0x00	; 0
    108a:	90 e0       	ldi	r25, 0x00	; 0
    108c:	3a c0       	rjmp	.+116    	; 0x1102 <fdevopen+0x8c>
    108e:	8b 01       	movw	r16, r22
    1090:	ec 01       	movw	r28, r24
    1092:	6e e0       	ldi	r22, 0x0E	; 14
    1094:	70 e0       	ldi	r23, 0x00	; 0
    1096:	81 e0       	ldi	r24, 0x01	; 1
    1098:	90 e0       	ldi	r25, 0x00	; 0
    109a:	0e 94 7d 0a 	call	0x14fa	; 0x14fa <calloc>
    109e:	fc 01       	movw	r30, r24
    10a0:	89 2b       	or	r24, r25
    10a2:	91 f3       	breq	.-28     	; 0x1088 <fdevopen+0x12>
    10a4:	80 e8       	ldi	r24, 0x80	; 128
    10a6:	83 83       	std	Z+3, r24	; 0x03
    10a8:	01 15       	cp	r16, r1
    10aa:	11 05       	cpc	r17, r1
    10ac:	71 f0       	breq	.+28     	; 0x10ca <fdevopen+0x54>
    10ae:	13 87       	std	Z+11, r17	; 0x0b
    10b0:	02 87       	std	Z+10, r16	; 0x0a
    10b2:	81 e8       	ldi	r24, 0x81	; 129
    10b4:	83 83       	std	Z+3, r24	; 0x03
    10b6:	80 91 9a 01 	lds	r24, 0x019A	; 0x80019a <__iob>
    10ba:	90 91 9b 01 	lds	r25, 0x019B	; 0x80019b <__iob+0x1>
    10be:	89 2b       	or	r24, r25
    10c0:	21 f4       	brne	.+8      	; 0x10ca <fdevopen+0x54>
    10c2:	f0 93 9b 01 	sts	0x019B, r31	; 0x80019b <__iob+0x1>
    10c6:	e0 93 9a 01 	sts	0x019A, r30	; 0x80019a <__iob>
    10ca:	20 97       	sbiw	r28, 0x00	; 0
    10cc:	c9 f0       	breq	.+50     	; 0x1100 <fdevopen+0x8a>
    10ce:	d1 87       	std	Z+9, r29	; 0x09
    10d0:	c0 87       	std	Z+8, r28	; 0x08
    10d2:	83 81       	ldd	r24, Z+3	; 0x03
    10d4:	82 60       	ori	r24, 0x02	; 2
    10d6:	83 83       	std	Z+3, r24	; 0x03
    10d8:	80 91 9c 01 	lds	r24, 0x019C	; 0x80019c <__iob+0x2>
    10dc:	90 91 9d 01 	lds	r25, 0x019D	; 0x80019d <__iob+0x3>
    10e0:	89 2b       	or	r24, r25
    10e2:	71 f4       	brne	.+28     	; 0x1100 <fdevopen+0x8a>
    10e4:	f0 93 9d 01 	sts	0x019D, r31	; 0x80019d <__iob+0x3>
    10e8:	e0 93 9c 01 	sts	0x019C, r30	; 0x80019c <__iob+0x2>
    10ec:	80 91 9e 01 	lds	r24, 0x019E	; 0x80019e <__iob+0x4>
    10f0:	90 91 9f 01 	lds	r25, 0x019F	; 0x80019f <__iob+0x5>
    10f4:	89 2b       	or	r24, r25
    10f6:	21 f4       	brne	.+8      	; 0x1100 <fdevopen+0x8a>
    10f8:	f0 93 9f 01 	sts	0x019F, r31	; 0x80019f <__iob+0x5>
    10fc:	e0 93 9e 01 	sts	0x019E, r30	; 0x80019e <__iob+0x4>
    1100:	cf 01       	movw	r24, r30
    1102:	df 91       	pop	r29
    1104:	cf 91       	pop	r28
    1106:	1f 91       	pop	r17
    1108:	0f 91       	pop	r16
    110a:	08 95       	ret

0000110c <printf>:
    110c:	a0 e0       	ldi	r26, 0x00	; 0
    110e:	b0 e0       	ldi	r27, 0x00	; 0
    1110:	ec e8       	ldi	r30, 0x8C	; 140
    1112:	f8 e0       	ldi	r31, 0x08	; 8
    1114:	0c 94 91 0c 	jmp	0x1922	; 0x1922 <__prologue_saves__+0x20>
    1118:	ae 01       	movw	r20, r28
    111a:	4b 5f       	subi	r20, 0xFB	; 251
    111c:	5f 4f       	sbci	r21, 0xFF	; 255
    111e:	fa 01       	movw	r30, r20
    1120:	61 91       	ld	r22, Z+
    1122:	71 91       	ld	r23, Z+
    1124:	af 01       	movw	r20, r30
    1126:	80 91 9c 01 	lds	r24, 0x019C	; 0x80019c <__iob+0x2>
    112a:	90 91 9d 01 	lds	r25, 0x019D	; 0x80019d <__iob+0x3>
    112e:	0e 94 9c 08 	call	0x1138	; 0x1138 <vfprintf>
    1132:	e2 e0       	ldi	r30, 0x02	; 2
    1134:	0c 94 ad 0c 	jmp	0x195a	; 0x195a <__epilogue_restores__+0x20>

00001138 <vfprintf>:
    1138:	ab e0       	ldi	r26, 0x0B	; 11
    113a:	b0 e0       	ldi	r27, 0x00	; 0
    113c:	e2 ea       	ldi	r30, 0xA2	; 162
    113e:	f8 e0       	ldi	r31, 0x08	; 8
    1140:	0c 94 81 0c 	jmp	0x1902	; 0x1902 <__prologue_saves__>
    1144:	6c 01       	movw	r12, r24
    1146:	7b 01       	movw	r14, r22
    1148:	8a 01       	movw	r16, r20
    114a:	fc 01       	movw	r30, r24
    114c:	17 82       	std	Z+7, r1	; 0x07
    114e:	16 82       	std	Z+6, r1	; 0x06
    1150:	83 81       	ldd	r24, Z+3	; 0x03
    1152:	81 ff       	sbrs	r24, 1
    1154:	cc c1       	rjmp	.+920    	; 0x14ee <vfprintf+0x3b6>
    1156:	ce 01       	movw	r24, r28
    1158:	01 96       	adiw	r24, 0x01	; 1
    115a:	3c 01       	movw	r6, r24
    115c:	f6 01       	movw	r30, r12
    115e:	93 81       	ldd	r25, Z+3	; 0x03
    1160:	f7 01       	movw	r30, r14
    1162:	93 fd       	sbrc	r25, 3
    1164:	85 91       	lpm	r24, Z+
    1166:	93 ff       	sbrs	r25, 3
    1168:	81 91       	ld	r24, Z+
    116a:	7f 01       	movw	r14, r30
    116c:	88 23       	and	r24, r24
    116e:	09 f4       	brne	.+2      	; 0x1172 <vfprintf+0x3a>
    1170:	ba c1       	rjmp	.+884    	; 0x14e6 <vfprintf+0x3ae>
    1172:	85 32       	cpi	r24, 0x25	; 37
    1174:	39 f4       	brne	.+14     	; 0x1184 <vfprintf+0x4c>
    1176:	93 fd       	sbrc	r25, 3
    1178:	85 91       	lpm	r24, Z+
    117a:	93 ff       	sbrs	r25, 3
    117c:	81 91       	ld	r24, Z+
    117e:	7f 01       	movw	r14, r30
    1180:	85 32       	cpi	r24, 0x25	; 37
    1182:	29 f4       	brne	.+10     	; 0x118e <vfprintf+0x56>
    1184:	b6 01       	movw	r22, r12
    1186:	90 e0       	ldi	r25, 0x00	; 0
    1188:	0e 94 e7 0b 	call	0x17ce	; 0x17ce <fputc>
    118c:	e7 cf       	rjmp	.-50     	; 0x115c <vfprintf+0x24>
    118e:	91 2c       	mov	r9, r1
    1190:	21 2c       	mov	r2, r1
    1192:	31 2c       	mov	r3, r1
    1194:	ff e1       	ldi	r31, 0x1F	; 31
    1196:	f3 15       	cp	r31, r3
    1198:	d8 f0       	brcs	.+54     	; 0x11d0 <vfprintf+0x98>
    119a:	8b 32       	cpi	r24, 0x2B	; 43
    119c:	79 f0       	breq	.+30     	; 0x11bc <vfprintf+0x84>
    119e:	38 f4       	brcc	.+14     	; 0x11ae <vfprintf+0x76>
    11a0:	80 32       	cpi	r24, 0x20	; 32
    11a2:	79 f0       	breq	.+30     	; 0x11c2 <vfprintf+0x8a>
    11a4:	83 32       	cpi	r24, 0x23	; 35
    11a6:	a1 f4       	brne	.+40     	; 0x11d0 <vfprintf+0x98>
    11a8:	23 2d       	mov	r18, r3
    11aa:	20 61       	ori	r18, 0x10	; 16
    11ac:	1d c0       	rjmp	.+58     	; 0x11e8 <vfprintf+0xb0>
    11ae:	8d 32       	cpi	r24, 0x2D	; 45
    11b0:	61 f0       	breq	.+24     	; 0x11ca <vfprintf+0x92>
    11b2:	80 33       	cpi	r24, 0x30	; 48
    11b4:	69 f4       	brne	.+26     	; 0x11d0 <vfprintf+0x98>
    11b6:	23 2d       	mov	r18, r3
    11b8:	21 60       	ori	r18, 0x01	; 1
    11ba:	16 c0       	rjmp	.+44     	; 0x11e8 <vfprintf+0xb0>
    11bc:	83 2d       	mov	r24, r3
    11be:	82 60       	ori	r24, 0x02	; 2
    11c0:	38 2e       	mov	r3, r24
    11c2:	e3 2d       	mov	r30, r3
    11c4:	e4 60       	ori	r30, 0x04	; 4
    11c6:	3e 2e       	mov	r3, r30
    11c8:	2a c0       	rjmp	.+84     	; 0x121e <vfprintf+0xe6>
    11ca:	f3 2d       	mov	r31, r3
    11cc:	f8 60       	ori	r31, 0x08	; 8
    11ce:	1d c0       	rjmp	.+58     	; 0x120a <vfprintf+0xd2>
    11d0:	37 fc       	sbrc	r3, 7
    11d2:	2d c0       	rjmp	.+90     	; 0x122e <vfprintf+0xf6>
    11d4:	20 ed       	ldi	r18, 0xD0	; 208
    11d6:	28 0f       	add	r18, r24
    11d8:	2a 30       	cpi	r18, 0x0A	; 10
    11da:	40 f0       	brcs	.+16     	; 0x11ec <vfprintf+0xb4>
    11dc:	8e 32       	cpi	r24, 0x2E	; 46
    11de:	b9 f4       	brne	.+46     	; 0x120e <vfprintf+0xd6>
    11e0:	36 fc       	sbrc	r3, 6
    11e2:	81 c1       	rjmp	.+770    	; 0x14e6 <vfprintf+0x3ae>
    11e4:	23 2d       	mov	r18, r3
    11e6:	20 64       	ori	r18, 0x40	; 64
    11e8:	32 2e       	mov	r3, r18
    11ea:	19 c0       	rjmp	.+50     	; 0x121e <vfprintf+0xe6>
    11ec:	36 fe       	sbrs	r3, 6
    11ee:	06 c0       	rjmp	.+12     	; 0x11fc <vfprintf+0xc4>
    11f0:	8a e0       	ldi	r24, 0x0A	; 10
    11f2:	98 9e       	mul	r9, r24
    11f4:	20 0d       	add	r18, r0
    11f6:	11 24       	eor	r1, r1
    11f8:	92 2e       	mov	r9, r18
    11fa:	11 c0       	rjmp	.+34     	; 0x121e <vfprintf+0xe6>
    11fc:	ea e0       	ldi	r30, 0x0A	; 10
    11fe:	2e 9e       	mul	r2, r30
    1200:	20 0d       	add	r18, r0
    1202:	11 24       	eor	r1, r1
    1204:	22 2e       	mov	r2, r18
    1206:	f3 2d       	mov	r31, r3
    1208:	f0 62       	ori	r31, 0x20	; 32
    120a:	3f 2e       	mov	r3, r31
    120c:	08 c0       	rjmp	.+16     	; 0x121e <vfprintf+0xe6>
    120e:	8c 36       	cpi	r24, 0x6C	; 108
    1210:	21 f4       	brne	.+8      	; 0x121a <vfprintf+0xe2>
    1212:	83 2d       	mov	r24, r3
    1214:	80 68       	ori	r24, 0x80	; 128
    1216:	38 2e       	mov	r3, r24
    1218:	02 c0       	rjmp	.+4      	; 0x121e <vfprintf+0xe6>
    121a:	88 36       	cpi	r24, 0x68	; 104
    121c:	41 f4       	brne	.+16     	; 0x122e <vfprintf+0xf6>
    121e:	f7 01       	movw	r30, r14
    1220:	93 fd       	sbrc	r25, 3
    1222:	85 91       	lpm	r24, Z+
    1224:	93 ff       	sbrs	r25, 3
    1226:	81 91       	ld	r24, Z+
    1228:	7f 01       	movw	r14, r30
    122a:	81 11       	cpse	r24, r1
    122c:	b3 cf       	rjmp	.-154    	; 0x1194 <vfprintf+0x5c>
    122e:	98 2f       	mov	r25, r24
    1230:	9f 7d       	andi	r25, 0xDF	; 223
    1232:	95 54       	subi	r25, 0x45	; 69
    1234:	93 30       	cpi	r25, 0x03	; 3
    1236:	28 f4       	brcc	.+10     	; 0x1242 <vfprintf+0x10a>
    1238:	0c 5f       	subi	r16, 0xFC	; 252
    123a:	1f 4f       	sbci	r17, 0xFF	; 255
    123c:	9f e3       	ldi	r25, 0x3F	; 63
    123e:	99 83       	std	Y+1, r25	; 0x01
    1240:	0d c0       	rjmp	.+26     	; 0x125c <vfprintf+0x124>
    1242:	83 36       	cpi	r24, 0x63	; 99
    1244:	31 f0       	breq	.+12     	; 0x1252 <vfprintf+0x11a>
    1246:	83 37       	cpi	r24, 0x73	; 115
    1248:	71 f0       	breq	.+28     	; 0x1266 <vfprintf+0x12e>
    124a:	83 35       	cpi	r24, 0x53	; 83
    124c:	09 f0       	breq	.+2      	; 0x1250 <vfprintf+0x118>
    124e:	59 c0       	rjmp	.+178    	; 0x1302 <vfprintf+0x1ca>
    1250:	21 c0       	rjmp	.+66     	; 0x1294 <vfprintf+0x15c>
    1252:	f8 01       	movw	r30, r16
    1254:	80 81       	ld	r24, Z
    1256:	89 83       	std	Y+1, r24	; 0x01
    1258:	0e 5f       	subi	r16, 0xFE	; 254
    125a:	1f 4f       	sbci	r17, 0xFF	; 255
    125c:	88 24       	eor	r8, r8
    125e:	83 94       	inc	r8
    1260:	91 2c       	mov	r9, r1
    1262:	53 01       	movw	r10, r6
    1264:	13 c0       	rjmp	.+38     	; 0x128c <vfprintf+0x154>
    1266:	28 01       	movw	r4, r16
    1268:	f2 e0       	ldi	r31, 0x02	; 2
    126a:	4f 0e       	add	r4, r31
    126c:	51 1c       	adc	r5, r1
    126e:	f8 01       	movw	r30, r16
    1270:	a0 80       	ld	r10, Z
    1272:	b1 80       	ldd	r11, Z+1	; 0x01
    1274:	36 fe       	sbrs	r3, 6
    1276:	03 c0       	rjmp	.+6      	; 0x127e <vfprintf+0x146>
    1278:	69 2d       	mov	r22, r9
    127a:	70 e0       	ldi	r23, 0x00	; 0
    127c:	02 c0       	rjmp	.+4      	; 0x1282 <vfprintf+0x14a>
    127e:	6f ef       	ldi	r22, 0xFF	; 255
    1280:	7f ef       	ldi	r23, 0xFF	; 255
    1282:	c5 01       	movw	r24, r10
    1284:	0e 94 cc 0b 	call	0x1798	; 0x1798 <strnlen>
    1288:	4c 01       	movw	r8, r24
    128a:	82 01       	movw	r16, r4
    128c:	f3 2d       	mov	r31, r3
    128e:	ff 77       	andi	r31, 0x7F	; 127
    1290:	3f 2e       	mov	r3, r31
    1292:	16 c0       	rjmp	.+44     	; 0x12c0 <vfprintf+0x188>
    1294:	28 01       	movw	r4, r16
    1296:	22 e0       	ldi	r18, 0x02	; 2
    1298:	42 0e       	add	r4, r18
    129a:	51 1c       	adc	r5, r1
    129c:	f8 01       	movw	r30, r16
    129e:	a0 80       	ld	r10, Z
    12a0:	b1 80       	ldd	r11, Z+1	; 0x01
    12a2:	36 fe       	sbrs	r3, 6
    12a4:	03 c0       	rjmp	.+6      	; 0x12ac <vfprintf+0x174>
    12a6:	69 2d       	mov	r22, r9
    12a8:	70 e0       	ldi	r23, 0x00	; 0
    12aa:	02 c0       	rjmp	.+4      	; 0x12b0 <vfprintf+0x178>
    12ac:	6f ef       	ldi	r22, 0xFF	; 255
    12ae:	7f ef       	ldi	r23, 0xFF	; 255
    12b0:	c5 01       	movw	r24, r10
    12b2:	0e 94 ba 0b 	call	0x1774	; 0x1774 <strnlen_P>
    12b6:	4c 01       	movw	r8, r24
    12b8:	f3 2d       	mov	r31, r3
    12ba:	f0 68       	ori	r31, 0x80	; 128
    12bc:	3f 2e       	mov	r3, r31
    12be:	82 01       	movw	r16, r4
    12c0:	33 fc       	sbrc	r3, 3
    12c2:	1b c0       	rjmp	.+54     	; 0x12fa <vfprintf+0x1c2>
    12c4:	82 2d       	mov	r24, r2
    12c6:	90 e0       	ldi	r25, 0x00	; 0
    12c8:	88 16       	cp	r8, r24
    12ca:	99 06       	cpc	r9, r25
    12cc:	b0 f4       	brcc	.+44     	; 0x12fa <vfprintf+0x1c2>
    12ce:	b6 01       	movw	r22, r12
    12d0:	80 e2       	ldi	r24, 0x20	; 32
    12d2:	90 e0       	ldi	r25, 0x00	; 0
    12d4:	0e 94 e7 0b 	call	0x17ce	; 0x17ce <fputc>
    12d8:	2a 94       	dec	r2
    12da:	f4 cf       	rjmp	.-24     	; 0x12c4 <vfprintf+0x18c>
    12dc:	f5 01       	movw	r30, r10
    12de:	37 fc       	sbrc	r3, 7
    12e0:	85 91       	lpm	r24, Z+
    12e2:	37 fe       	sbrs	r3, 7
    12e4:	81 91       	ld	r24, Z+
    12e6:	5f 01       	movw	r10, r30
    12e8:	b6 01       	movw	r22, r12
    12ea:	90 e0       	ldi	r25, 0x00	; 0
    12ec:	0e 94 e7 0b 	call	0x17ce	; 0x17ce <fputc>
    12f0:	21 10       	cpse	r2, r1
    12f2:	2a 94       	dec	r2
    12f4:	21 e0       	ldi	r18, 0x01	; 1
    12f6:	82 1a       	sub	r8, r18
    12f8:	91 08       	sbc	r9, r1
    12fa:	81 14       	cp	r8, r1
    12fc:	91 04       	cpc	r9, r1
    12fe:	71 f7       	brne	.-36     	; 0x12dc <vfprintf+0x1a4>
    1300:	e8 c0       	rjmp	.+464    	; 0x14d2 <vfprintf+0x39a>
    1302:	84 36       	cpi	r24, 0x64	; 100
    1304:	11 f0       	breq	.+4      	; 0x130a <vfprintf+0x1d2>
    1306:	89 36       	cpi	r24, 0x69	; 105
    1308:	41 f5       	brne	.+80     	; 0x135a <vfprintf+0x222>
    130a:	f8 01       	movw	r30, r16
    130c:	37 fe       	sbrs	r3, 7
    130e:	07 c0       	rjmp	.+14     	; 0x131e <vfprintf+0x1e6>
    1310:	60 81       	ld	r22, Z
    1312:	71 81       	ldd	r23, Z+1	; 0x01
    1314:	82 81       	ldd	r24, Z+2	; 0x02
    1316:	93 81       	ldd	r25, Z+3	; 0x03
    1318:	0c 5f       	subi	r16, 0xFC	; 252
    131a:	1f 4f       	sbci	r17, 0xFF	; 255
    131c:	08 c0       	rjmp	.+16     	; 0x132e <vfprintf+0x1f6>
    131e:	60 81       	ld	r22, Z
    1320:	71 81       	ldd	r23, Z+1	; 0x01
    1322:	07 2e       	mov	r0, r23
    1324:	00 0c       	add	r0, r0
    1326:	88 0b       	sbc	r24, r24
    1328:	99 0b       	sbc	r25, r25
    132a:	0e 5f       	subi	r16, 0xFE	; 254
    132c:	1f 4f       	sbci	r17, 0xFF	; 255
    132e:	f3 2d       	mov	r31, r3
    1330:	ff 76       	andi	r31, 0x6F	; 111
    1332:	3f 2e       	mov	r3, r31
    1334:	97 ff       	sbrs	r25, 7
    1336:	09 c0       	rjmp	.+18     	; 0x134a <vfprintf+0x212>
    1338:	90 95       	com	r25
    133a:	80 95       	com	r24
    133c:	70 95       	com	r23
    133e:	61 95       	neg	r22
    1340:	7f 4f       	sbci	r23, 0xFF	; 255
    1342:	8f 4f       	sbci	r24, 0xFF	; 255
    1344:	9f 4f       	sbci	r25, 0xFF	; 255
    1346:	f0 68       	ori	r31, 0x80	; 128
    1348:	3f 2e       	mov	r3, r31
    134a:	2a e0       	ldi	r18, 0x0A	; 10
    134c:	30 e0       	ldi	r19, 0x00	; 0
    134e:	a3 01       	movw	r20, r6
    1350:	0e 94 23 0c 	call	0x1846	; 0x1846 <__ultoa_invert>
    1354:	88 2e       	mov	r8, r24
    1356:	86 18       	sub	r8, r6
    1358:	45 c0       	rjmp	.+138    	; 0x13e4 <vfprintf+0x2ac>
    135a:	85 37       	cpi	r24, 0x75	; 117
    135c:	31 f4       	brne	.+12     	; 0x136a <vfprintf+0x232>
    135e:	23 2d       	mov	r18, r3
    1360:	2f 7e       	andi	r18, 0xEF	; 239
    1362:	b2 2e       	mov	r11, r18
    1364:	2a e0       	ldi	r18, 0x0A	; 10
    1366:	30 e0       	ldi	r19, 0x00	; 0
    1368:	25 c0       	rjmp	.+74     	; 0x13b4 <vfprintf+0x27c>
    136a:	93 2d       	mov	r25, r3
    136c:	99 7f       	andi	r25, 0xF9	; 249
    136e:	b9 2e       	mov	r11, r25
    1370:	8f 36       	cpi	r24, 0x6F	; 111
    1372:	c1 f0       	breq	.+48     	; 0x13a4 <vfprintf+0x26c>
    1374:	18 f4       	brcc	.+6      	; 0x137c <vfprintf+0x244>
    1376:	88 35       	cpi	r24, 0x58	; 88
    1378:	79 f0       	breq	.+30     	; 0x1398 <vfprintf+0x260>
    137a:	b5 c0       	rjmp	.+362    	; 0x14e6 <vfprintf+0x3ae>
    137c:	80 37       	cpi	r24, 0x70	; 112
    137e:	19 f0       	breq	.+6      	; 0x1386 <vfprintf+0x24e>
    1380:	88 37       	cpi	r24, 0x78	; 120
    1382:	21 f0       	breq	.+8      	; 0x138c <vfprintf+0x254>
    1384:	b0 c0       	rjmp	.+352    	; 0x14e6 <vfprintf+0x3ae>
    1386:	e9 2f       	mov	r30, r25
    1388:	e0 61       	ori	r30, 0x10	; 16
    138a:	be 2e       	mov	r11, r30
    138c:	b4 fe       	sbrs	r11, 4
    138e:	0d c0       	rjmp	.+26     	; 0x13aa <vfprintf+0x272>
    1390:	fb 2d       	mov	r31, r11
    1392:	f4 60       	ori	r31, 0x04	; 4
    1394:	bf 2e       	mov	r11, r31
    1396:	09 c0       	rjmp	.+18     	; 0x13aa <vfprintf+0x272>
    1398:	34 fe       	sbrs	r3, 4
    139a:	0a c0       	rjmp	.+20     	; 0x13b0 <vfprintf+0x278>
    139c:	29 2f       	mov	r18, r25
    139e:	26 60       	ori	r18, 0x06	; 6
    13a0:	b2 2e       	mov	r11, r18
    13a2:	06 c0       	rjmp	.+12     	; 0x13b0 <vfprintf+0x278>
    13a4:	28 e0       	ldi	r18, 0x08	; 8
    13a6:	30 e0       	ldi	r19, 0x00	; 0
    13a8:	05 c0       	rjmp	.+10     	; 0x13b4 <vfprintf+0x27c>
    13aa:	20 e1       	ldi	r18, 0x10	; 16
    13ac:	30 e0       	ldi	r19, 0x00	; 0
    13ae:	02 c0       	rjmp	.+4      	; 0x13b4 <vfprintf+0x27c>
    13b0:	20 e1       	ldi	r18, 0x10	; 16
    13b2:	32 e0       	ldi	r19, 0x02	; 2
    13b4:	f8 01       	movw	r30, r16
    13b6:	b7 fe       	sbrs	r11, 7
    13b8:	07 c0       	rjmp	.+14     	; 0x13c8 <vfprintf+0x290>
    13ba:	60 81       	ld	r22, Z
    13bc:	71 81       	ldd	r23, Z+1	; 0x01
    13be:	82 81       	ldd	r24, Z+2	; 0x02
    13c0:	93 81       	ldd	r25, Z+3	; 0x03
    13c2:	0c 5f       	subi	r16, 0xFC	; 252
    13c4:	1f 4f       	sbci	r17, 0xFF	; 255
    13c6:	06 c0       	rjmp	.+12     	; 0x13d4 <vfprintf+0x29c>
    13c8:	60 81       	ld	r22, Z
    13ca:	71 81       	ldd	r23, Z+1	; 0x01
    13cc:	80 e0       	ldi	r24, 0x00	; 0
    13ce:	90 e0       	ldi	r25, 0x00	; 0
    13d0:	0e 5f       	subi	r16, 0xFE	; 254
    13d2:	1f 4f       	sbci	r17, 0xFF	; 255
    13d4:	a3 01       	movw	r20, r6
    13d6:	0e 94 23 0c 	call	0x1846	; 0x1846 <__ultoa_invert>
    13da:	88 2e       	mov	r8, r24
    13dc:	86 18       	sub	r8, r6
    13de:	fb 2d       	mov	r31, r11
    13e0:	ff 77       	andi	r31, 0x7F	; 127
    13e2:	3f 2e       	mov	r3, r31
    13e4:	36 fe       	sbrs	r3, 6
    13e6:	0d c0       	rjmp	.+26     	; 0x1402 <vfprintf+0x2ca>
    13e8:	23 2d       	mov	r18, r3
    13ea:	2e 7f       	andi	r18, 0xFE	; 254
    13ec:	a2 2e       	mov	r10, r18
    13ee:	89 14       	cp	r8, r9
    13f0:	58 f4       	brcc	.+22     	; 0x1408 <vfprintf+0x2d0>
    13f2:	34 fe       	sbrs	r3, 4
    13f4:	0b c0       	rjmp	.+22     	; 0x140c <vfprintf+0x2d4>
    13f6:	32 fc       	sbrc	r3, 2
    13f8:	09 c0       	rjmp	.+18     	; 0x140c <vfprintf+0x2d4>
    13fa:	83 2d       	mov	r24, r3
    13fc:	8e 7e       	andi	r24, 0xEE	; 238
    13fe:	a8 2e       	mov	r10, r24
    1400:	05 c0       	rjmp	.+10     	; 0x140c <vfprintf+0x2d4>
    1402:	b8 2c       	mov	r11, r8
    1404:	a3 2c       	mov	r10, r3
    1406:	03 c0       	rjmp	.+6      	; 0x140e <vfprintf+0x2d6>
    1408:	b8 2c       	mov	r11, r8
    140a:	01 c0       	rjmp	.+2      	; 0x140e <vfprintf+0x2d6>
    140c:	b9 2c       	mov	r11, r9
    140e:	a4 fe       	sbrs	r10, 4
    1410:	0f c0       	rjmp	.+30     	; 0x1430 <vfprintf+0x2f8>
    1412:	fe 01       	movw	r30, r28
    1414:	e8 0d       	add	r30, r8
    1416:	f1 1d       	adc	r31, r1
    1418:	80 81       	ld	r24, Z
    141a:	80 33       	cpi	r24, 0x30	; 48
    141c:	21 f4       	brne	.+8      	; 0x1426 <vfprintf+0x2ee>
    141e:	9a 2d       	mov	r25, r10
    1420:	99 7e       	andi	r25, 0xE9	; 233
    1422:	a9 2e       	mov	r10, r25
    1424:	09 c0       	rjmp	.+18     	; 0x1438 <vfprintf+0x300>
    1426:	a2 fe       	sbrs	r10, 2
    1428:	06 c0       	rjmp	.+12     	; 0x1436 <vfprintf+0x2fe>
    142a:	b3 94       	inc	r11
    142c:	b3 94       	inc	r11
    142e:	04 c0       	rjmp	.+8      	; 0x1438 <vfprintf+0x300>
    1430:	8a 2d       	mov	r24, r10
    1432:	86 78       	andi	r24, 0x86	; 134
    1434:	09 f0       	breq	.+2      	; 0x1438 <vfprintf+0x300>
    1436:	b3 94       	inc	r11
    1438:	a3 fc       	sbrc	r10, 3
    143a:	11 c0       	rjmp	.+34     	; 0x145e <vfprintf+0x326>
    143c:	a0 fe       	sbrs	r10, 0
    143e:	06 c0       	rjmp	.+12     	; 0x144c <vfprintf+0x314>
    1440:	b2 14       	cp	r11, r2
    1442:	88 f4       	brcc	.+34     	; 0x1466 <vfprintf+0x32e>
    1444:	28 0c       	add	r2, r8
    1446:	92 2c       	mov	r9, r2
    1448:	9b 18       	sub	r9, r11
    144a:	0e c0       	rjmp	.+28     	; 0x1468 <vfprintf+0x330>
    144c:	b2 14       	cp	r11, r2
    144e:	60 f4       	brcc	.+24     	; 0x1468 <vfprintf+0x330>
    1450:	b6 01       	movw	r22, r12
    1452:	80 e2       	ldi	r24, 0x20	; 32
    1454:	90 e0       	ldi	r25, 0x00	; 0
    1456:	0e 94 e7 0b 	call	0x17ce	; 0x17ce <fputc>
    145a:	b3 94       	inc	r11
    145c:	f7 cf       	rjmp	.-18     	; 0x144c <vfprintf+0x314>
    145e:	b2 14       	cp	r11, r2
    1460:	18 f4       	brcc	.+6      	; 0x1468 <vfprintf+0x330>
    1462:	2b 18       	sub	r2, r11
    1464:	02 c0       	rjmp	.+4      	; 0x146a <vfprintf+0x332>
    1466:	98 2c       	mov	r9, r8
    1468:	21 2c       	mov	r2, r1
    146a:	a4 fe       	sbrs	r10, 4
    146c:	10 c0       	rjmp	.+32     	; 0x148e <vfprintf+0x356>
    146e:	b6 01       	movw	r22, r12
    1470:	80 e3       	ldi	r24, 0x30	; 48
    1472:	90 e0       	ldi	r25, 0x00	; 0
    1474:	0e 94 e7 0b 	call	0x17ce	; 0x17ce <fputc>
    1478:	a2 fe       	sbrs	r10, 2
    147a:	17 c0       	rjmp	.+46     	; 0x14aa <vfprintf+0x372>
    147c:	a1 fc       	sbrc	r10, 1
    147e:	03 c0       	rjmp	.+6      	; 0x1486 <vfprintf+0x34e>
    1480:	88 e7       	ldi	r24, 0x78	; 120
    1482:	90 e0       	ldi	r25, 0x00	; 0
    1484:	02 c0       	rjmp	.+4      	; 0x148a <vfprintf+0x352>
    1486:	88 e5       	ldi	r24, 0x58	; 88
    1488:	90 e0       	ldi	r25, 0x00	; 0
    148a:	b6 01       	movw	r22, r12
    148c:	0c c0       	rjmp	.+24     	; 0x14a6 <vfprintf+0x36e>
    148e:	8a 2d       	mov	r24, r10
    1490:	86 78       	andi	r24, 0x86	; 134
    1492:	59 f0       	breq	.+22     	; 0x14aa <vfprintf+0x372>
    1494:	a1 fe       	sbrs	r10, 1
    1496:	02 c0       	rjmp	.+4      	; 0x149c <vfprintf+0x364>
    1498:	8b e2       	ldi	r24, 0x2B	; 43
    149a:	01 c0       	rjmp	.+2      	; 0x149e <vfprintf+0x366>
    149c:	80 e2       	ldi	r24, 0x20	; 32
    149e:	a7 fc       	sbrc	r10, 7
    14a0:	8d e2       	ldi	r24, 0x2D	; 45
    14a2:	b6 01       	movw	r22, r12
    14a4:	90 e0       	ldi	r25, 0x00	; 0
    14a6:	0e 94 e7 0b 	call	0x17ce	; 0x17ce <fputc>
    14aa:	89 14       	cp	r8, r9
    14ac:	38 f4       	brcc	.+14     	; 0x14bc <vfprintf+0x384>
    14ae:	b6 01       	movw	r22, r12
    14b0:	80 e3       	ldi	r24, 0x30	; 48
    14b2:	90 e0       	ldi	r25, 0x00	; 0
    14b4:	0e 94 e7 0b 	call	0x17ce	; 0x17ce <fputc>
    14b8:	9a 94       	dec	r9
    14ba:	f7 cf       	rjmp	.-18     	; 0x14aa <vfprintf+0x372>
    14bc:	8a 94       	dec	r8
    14be:	f3 01       	movw	r30, r6
    14c0:	e8 0d       	add	r30, r8
    14c2:	f1 1d       	adc	r31, r1
    14c4:	80 81       	ld	r24, Z
    14c6:	b6 01       	movw	r22, r12
    14c8:	90 e0       	ldi	r25, 0x00	; 0
    14ca:	0e 94 e7 0b 	call	0x17ce	; 0x17ce <fputc>
    14ce:	81 10       	cpse	r8, r1
    14d0:	f5 cf       	rjmp	.-22     	; 0x14bc <vfprintf+0x384>
    14d2:	22 20       	and	r2, r2
    14d4:	09 f4       	brne	.+2      	; 0x14d8 <vfprintf+0x3a0>
    14d6:	42 ce       	rjmp	.-892    	; 0x115c <vfprintf+0x24>
    14d8:	b6 01       	movw	r22, r12
    14da:	80 e2       	ldi	r24, 0x20	; 32
    14dc:	90 e0       	ldi	r25, 0x00	; 0
    14de:	0e 94 e7 0b 	call	0x17ce	; 0x17ce <fputc>
    14e2:	2a 94       	dec	r2
    14e4:	f6 cf       	rjmp	.-20     	; 0x14d2 <vfprintf+0x39a>
    14e6:	f6 01       	movw	r30, r12
    14e8:	86 81       	ldd	r24, Z+6	; 0x06
    14ea:	97 81       	ldd	r25, Z+7	; 0x07
    14ec:	02 c0       	rjmp	.+4      	; 0x14f2 <vfprintf+0x3ba>
    14ee:	8f ef       	ldi	r24, 0xFF	; 255
    14f0:	9f ef       	ldi	r25, 0xFF	; 255
    14f2:	2b 96       	adiw	r28, 0x0b	; 11
    14f4:	e2 e1       	ldi	r30, 0x12	; 18
    14f6:	0c 94 9d 0c 	jmp	0x193a	; 0x193a <__epilogue_restores__>

000014fa <calloc>:
    14fa:	0f 93       	push	r16
    14fc:	1f 93       	push	r17
    14fe:	cf 93       	push	r28
    1500:	df 93       	push	r29
    1502:	86 9f       	mul	r24, r22
    1504:	80 01       	movw	r16, r0
    1506:	87 9f       	mul	r24, r23
    1508:	10 0d       	add	r17, r0
    150a:	96 9f       	mul	r25, r22
    150c:	10 0d       	add	r17, r0
    150e:	11 24       	eor	r1, r1
    1510:	c8 01       	movw	r24, r16
    1512:	0e 94 99 0a 	call	0x1532	; 0x1532 <malloc>
    1516:	ec 01       	movw	r28, r24
    1518:	00 97       	sbiw	r24, 0x00	; 0
    151a:	29 f0       	breq	.+10     	; 0x1526 <calloc+0x2c>
    151c:	a8 01       	movw	r20, r16
    151e:	60 e0       	ldi	r22, 0x00	; 0
    1520:	70 e0       	ldi	r23, 0x00	; 0
    1522:	0e 94 c5 0b 	call	0x178a	; 0x178a <memset>
    1526:	ce 01       	movw	r24, r28
    1528:	df 91       	pop	r29
    152a:	cf 91       	pop	r28
    152c:	1f 91       	pop	r17
    152e:	0f 91       	pop	r16
    1530:	08 95       	ret

00001532 <malloc>:
    1532:	0f 93       	push	r16
    1534:	1f 93       	push	r17
    1536:	cf 93       	push	r28
    1538:	df 93       	push	r29
    153a:	82 30       	cpi	r24, 0x02	; 2
    153c:	91 05       	cpc	r25, r1
    153e:	10 f4       	brcc	.+4      	; 0x1544 <malloc+0x12>
    1540:	82 e0       	ldi	r24, 0x02	; 2
    1542:	90 e0       	ldi	r25, 0x00	; 0
    1544:	e0 91 a2 01 	lds	r30, 0x01A2	; 0x8001a2 <__flp>
    1548:	f0 91 a3 01 	lds	r31, 0x01A3	; 0x8001a3 <__flp+0x1>
    154c:	20 e0       	ldi	r18, 0x00	; 0
    154e:	30 e0       	ldi	r19, 0x00	; 0
    1550:	a0 e0       	ldi	r26, 0x00	; 0
    1552:	b0 e0       	ldi	r27, 0x00	; 0
    1554:	30 97       	sbiw	r30, 0x00	; 0
    1556:	19 f1       	breq	.+70     	; 0x159e <malloc+0x6c>
    1558:	40 81       	ld	r20, Z
    155a:	51 81       	ldd	r21, Z+1	; 0x01
    155c:	02 81       	ldd	r16, Z+2	; 0x02
    155e:	13 81       	ldd	r17, Z+3	; 0x03
    1560:	48 17       	cp	r20, r24
    1562:	59 07       	cpc	r21, r25
    1564:	c8 f0       	brcs	.+50     	; 0x1598 <malloc+0x66>
    1566:	84 17       	cp	r24, r20
    1568:	95 07       	cpc	r25, r21
    156a:	69 f4       	brne	.+26     	; 0x1586 <malloc+0x54>
    156c:	10 97       	sbiw	r26, 0x00	; 0
    156e:	31 f0       	breq	.+12     	; 0x157c <malloc+0x4a>
    1570:	12 96       	adiw	r26, 0x02	; 2
    1572:	0c 93       	st	X, r16
    1574:	12 97       	sbiw	r26, 0x02	; 2
    1576:	13 96       	adiw	r26, 0x03	; 3
    1578:	1c 93       	st	X, r17
    157a:	27 c0       	rjmp	.+78     	; 0x15ca <malloc+0x98>
    157c:	00 93 a2 01 	sts	0x01A2, r16	; 0x8001a2 <__flp>
    1580:	10 93 a3 01 	sts	0x01A3, r17	; 0x8001a3 <__flp+0x1>
    1584:	22 c0       	rjmp	.+68     	; 0x15ca <malloc+0x98>
    1586:	21 15       	cp	r18, r1
    1588:	31 05       	cpc	r19, r1
    158a:	19 f0       	breq	.+6      	; 0x1592 <malloc+0x60>
    158c:	42 17       	cp	r20, r18
    158e:	53 07       	cpc	r21, r19
    1590:	18 f4       	brcc	.+6      	; 0x1598 <malloc+0x66>
    1592:	9a 01       	movw	r18, r20
    1594:	bd 01       	movw	r22, r26
    1596:	ef 01       	movw	r28, r30
    1598:	df 01       	movw	r26, r30
    159a:	f8 01       	movw	r30, r16
    159c:	db cf       	rjmp	.-74     	; 0x1554 <malloc+0x22>
    159e:	21 15       	cp	r18, r1
    15a0:	31 05       	cpc	r19, r1
    15a2:	f9 f0       	breq	.+62     	; 0x15e2 <malloc+0xb0>
    15a4:	28 1b       	sub	r18, r24
    15a6:	39 0b       	sbc	r19, r25
    15a8:	24 30       	cpi	r18, 0x04	; 4
    15aa:	31 05       	cpc	r19, r1
    15ac:	80 f4       	brcc	.+32     	; 0x15ce <malloc+0x9c>
    15ae:	8a 81       	ldd	r24, Y+2	; 0x02
    15b0:	9b 81       	ldd	r25, Y+3	; 0x03
    15b2:	61 15       	cp	r22, r1
    15b4:	71 05       	cpc	r23, r1
    15b6:	21 f0       	breq	.+8      	; 0x15c0 <malloc+0x8e>
    15b8:	fb 01       	movw	r30, r22
    15ba:	93 83       	std	Z+3, r25	; 0x03
    15bc:	82 83       	std	Z+2, r24	; 0x02
    15be:	04 c0       	rjmp	.+8      	; 0x15c8 <malloc+0x96>
    15c0:	90 93 a3 01 	sts	0x01A3, r25	; 0x8001a3 <__flp+0x1>
    15c4:	80 93 a2 01 	sts	0x01A2, r24	; 0x8001a2 <__flp>
    15c8:	fe 01       	movw	r30, r28
    15ca:	32 96       	adiw	r30, 0x02	; 2
    15cc:	44 c0       	rjmp	.+136    	; 0x1656 <malloc+0x124>
    15ce:	fe 01       	movw	r30, r28
    15d0:	e2 0f       	add	r30, r18
    15d2:	f3 1f       	adc	r31, r19
    15d4:	81 93       	st	Z+, r24
    15d6:	91 93       	st	Z+, r25
    15d8:	22 50       	subi	r18, 0x02	; 2
    15da:	31 09       	sbc	r19, r1
    15dc:	39 83       	std	Y+1, r19	; 0x01
    15de:	28 83       	st	Y, r18
    15e0:	3a c0       	rjmp	.+116    	; 0x1656 <malloc+0x124>
    15e2:	20 91 a0 01 	lds	r18, 0x01A0	; 0x8001a0 <__brkval>
    15e6:	30 91 a1 01 	lds	r19, 0x01A1	; 0x8001a1 <__brkval+0x1>
    15ea:	23 2b       	or	r18, r19
    15ec:	41 f4       	brne	.+16     	; 0x15fe <malloc+0xcc>
    15ee:	20 91 02 01 	lds	r18, 0x0102	; 0x800102 <__malloc_heap_start>
    15f2:	30 91 03 01 	lds	r19, 0x0103	; 0x800103 <__malloc_heap_start+0x1>
    15f6:	30 93 a1 01 	sts	0x01A1, r19	; 0x8001a1 <__brkval+0x1>
    15fa:	20 93 a0 01 	sts	0x01A0, r18	; 0x8001a0 <__brkval>
    15fe:	20 91 00 01 	lds	r18, 0x0100	; 0x800100 <__DATA_REGION_ORIGIN__>
    1602:	30 91 01 01 	lds	r19, 0x0101	; 0x800101 <__DATA_REGION_ORIGIN__+0x1>
    1606:	21 15       	cp	r18, r1
    1608:	31 05       	cpc	r19, r1
    160a:	41 f4       	brne	.+16     	; 0x161c <malloc+0xea>
    160c:	2d b7       	in	r18, 0x3d	; 61
    160e:	3e b7       	in	r19, 0x3e	; 62
    1610:	40 91 04 01 	lds	r20, 0x0104	; 0x800104 <__malloc_margin>
    1614:	50 91 05 01 	lds	r21, 0x0105	; 0x800105 <__malloc_margin+0x1>
    1618:	24 1b       	sub	r18, r20
    161a:	35 0b       	sbc	r19, r21
    161c:	e0 91 a0 01 	lds	r30, 0x01A0	; 0x8001a0 <__brkval>
    1620:	f0 91 a1 01 	lds	r31, 0x01A1	; 0x8001a1 <__brkval+0x1>
    1624:	e2 17       	cp	r30, r18
    1626:	f3 07       	cpc	r31, r19
    1628:	a0 f4       	brcc	.+40     	; 0x1652 <malloc+0x120>
    162a:	2e 1b       	sub	r18, r30
    162c:	3f 0b       	sbc	r19, r31
    162e:	28 17       	cp	r18, r24
    1630:	39 07       	cpc	r19, r25
    1632:	78 f0       	brcs	.+30     	; 0x1652 <malloc+0x120>
    1634:	ac 01       	movw	r20, r24
    1636:	4e 5f       	subi	r20, 0xFE	; 254
    1638:	5f 4f       	sbci	r21, 0xFF	; 255
    163a:	24 17       	cp	r18, r20
    163c:	35 07       	cpc	r19, r21
    163e:	48 f0       	brcs	.+18     	; 0x1652 <malloc+0x120>
    1640:	4e 0f       	add	r20, r30
    1642:	5f 1f       	adc	r21, r31
    1644:	50 93 a1 01 	sts	0x01A1, r21	; 0x8001a1 <__brkval+0x1>
    1648:	40 93 a0 01 	sts	0x01A0, r20	; 0x8001a0 <__brkval>
    164c:	81 93       	st	Z+, r24
    164e:	91 93       	st	Z+, r25
    1650:	02 c0       	rjmp	.+4      	; 0x1656 <malloc+0x124>
    1652:	e0 e0       	ldi	r30, 0x00	; 0
    1654:	f0 e0       	ldi	r31, 0x00	; 0
    1656:	cf 01       	movw	r24, r30
    1658:	df 91       	pop	r29
    165a:	cf 91       	pop	r28
    165c:	1f 91       	pop	r17
    165e:	0f 91       	pop	r16
    1660:	08 95       	ret

00001662 <free>:
    1662:	cf 93       	push	r28
    1664:	df 93       	push	r29
    1666:	00 97       	sbiw	r24, 0x00	; 0
    1668:	09 f4       	brne	.+2      	; 0x166c <free+0xa>
    166a:	81 c0       	rjmp	.+258    	; 0x176e <free+0x10c>
    166c:	fc 01       	movw	r30, r24
    166e:	32 97       	sbiw	r30, 0x02	; 2
    1670:	13 82       	std	Z+3, r1	; 0x03
    1672:	12 82       	std	Z+2, r1	; 0x02
    1674:	a0 91 a2 01 	lds	r26, 0x01A2	; 0x8001a2 <__flp>
    1678:	b0 91 a3 01 	lds	r27, 0x01A3	; 0x8001a3 <__flp+0x1>
    167c:	10 97       	sbiw	r26, 0x00	; 0
    167e:	81 f4       	brne	.+32     	; 0x16a0 <free+0x3e>
    1680:	20 81       	ld	r18, Z
    1682:	31 81       	ldd	r19, Z+1	; 0x01
    1684:	82 0f       	add	r24, r18
    1686:	93 1f       	adc	r25, r19
    1688:	20 91 a0 01 	lds	r18, 0x01A0	; 0x8001a0 <__brkval>
    168c:	30 91 a1 01 	lds	r19, 0x01A1	; 0x8001a1 <__brkval+0x1>
    1690:	28 17       	cp	r18, r24
    1692:	39 07       	cpc	r19, r25
    1694:	51 f5       	brne	.+84     	; 0x16ea <free+0x88>
    1696:	f0 93 a1 01 	sts	0x01A1, r31	; 0x8001a1 <__brkval+0x1>
    169a:	e0 93 a0 01 	sts	0x01A0, r30	; 0x8001a0 <__brkval>
    169e:	67 c0       	rjmp	.+206    	; 0x176e <free+0x10c>
    16a0:	ed 01       	movw	r28, r26
    16a2:	20 e0       	ldi	r18, 0x00	; 0
    16a4:	30 e0       	ldi	r19, 0x00	; 0
    16a6:	ce 17       	cp	r28, r30
    16a8:	df 07       	cpc	r29, r31
    16aa:	40 f4       	brcc	.+16     	; 0x16bc <free+0x5a>
    16ac:	4a 81       	ldd	r20, Y+2	; 0x02
    16ae:	5b 81       	ldd	r21, Y+3	; 0x03
    16b0:	9e 01       	movw	r18, r28
    16b2:	41 15       	cp	r20, r1
    16b4:	51 05       	cpc	r21, r1
    16b6:	f1 f0       	breq	.+60     	; 0x16f4 <free+0x92>
    16b8:	ea 01       	movw	r28, r20
    16ba:	f5 cf       	rjmp	.-22     	; 0x16a6 <free+0x44>
    16bc:	d3 83       	std	Z+3, r29	; 0x03
    16be:	c2 83       	std	Z+2, r28	; 0x02
    16c0:	40 81       	ld	r20, Z
    16c2:	51 81       	ldd	r21, Z+1	; 0x01
    16c4:	84 0f       	add	r24, r20
    16c6:	95 1f       	adc	r25, r21
    16c8:	c8 17       	cp	r28, r24
    16ca:	d9 07       	cpc	r29, r25
    16cc:	59 f4       	brne	.+22     	; 0x16e4 <free+0x82>
    16ce:	88 81       	ld	r24, Y
    16d0:	99 81       	ldd	r25, Y+1	; 0x01
    16d2:	84 0f       	add	r24, r20
    16d4:	95 1f       	adc	r25, r21
    16d6:	02 96       	adiw	r24, 0x02	; 2
    16d8:	91 83       	std	Z+1, r25	; 0x01
    16da:	80 83       	st	Z, r24
    16dc:	8a 81       	ldd	r24, Y+2	; 0x02
    16de:	9b 81       	ldd	r25, Y+3	; 0x03
    16e0:	93 83       	std	Z+3, r25	; 0x03
    16e2:	82 83       	std	Z+2, r24	; 0x02
    16e4:	21 15       	cp	r18, r1
    16e6:	31 05       	cpc	r19, r1
    16e8:	29 f4       	brne	.+10     	; 0x16f4 <free+0x92>
    16ea:	f0 93 a3 01 	sts	0x01A3, r31	; 0x8001a3 <__flp+0x1>
    16ee:	e0 93 a2 01 	sts	0x01A2, r30	; 0x8001a2 <__flp>
    16f2:	3d c0       	rjmp	.+122    	; 0x176e <free+0x10c>
    16f4:	e9 01       	movw	r28, r18
    16f6:	fb 83       	std	Y+3, r31	; 0x03
    16f8:	ea 83       	std	Y+2, r30	; 0x02
    16fa:	49 91       	ld	r20, Y+
    16fc:	59 91       	ld	r21, Y+
    16fe:	c4 0f       	add	r28, r20
    1700:	d5 1f       	adc	r29, r21
    1702:	ec 17       	cp	r30, r28
    1704:	fd 07       	cpc	r31, r29
    1706:	61 f4       	brne	.+24     	; 0x1720 <free+0xbe>
    1708:	80 81       	ld	r24, Z
    170a:	91 81       	ldd	r25, Z+1	; 0x01
    170c:	84 0f       	add	r24, r20
    170e:	95 1f       	adc	r25, r21
    1710:	02 96       	adiw	r24, 0x02	; 2
    1712:	e9 01       	movw	r28, r18
    1714:	99 83       	std	Y+1, r25	; 0x01
    1716:	88 83       	st	Y, r24
    1718:	82 81       	ldd	r24, Z+2	; 0x02
    171a:	93 81       	ldd	r25, Z+3	; 0x03
    171c:	9b 83       	std	Y+3, r25	; 0x03
    171e:	8a 83       	std	Y+2, r24	; 0x02
    1720:	e0 e0       	ldi	r30, 0x00	; 0
    1722:	f0 e0       	ldi	r31, 0x00	; 0
    1724:	12 96       	adiw	r26, 0x02	; 2
    1726:	8d 91       	ld	r24, X+
    1728:	9c 91       	ld	r25, X
    172a:	13 97       	sbiw	r26, 0x03	; 3
    172c:	00 97       	sbiw	r24, 0x00	; 0
    172e:	19 f0       	breq	.+6      	; 0x1736 <free+0xd4>
    1730:	fd 01       	movw	r30, r26
    1732:	dc 01       	movw	r26, r24
    1734:	f7 cf       	rjmp	.-18     	; 0x1724 <free+0xc2>
    1736:	8d 91       	ld	r24, X+
    1738:	9c 91       	ld	r25, X
    173a:	11 97       	sbiw	r26, 0x01	; 1
    173c:	9d 01       	movw	r18, r26
    173e:	2e 5f       	subi	r18, 0xFE	; 254
    1740:	3f 4f       	sbci	r19, 0xFF	; 255
    1742:	82 0f       	add	r24, r18
    1744:	93 1f       	adc	r25, r19
    1746:	20 91 a0 01 	lds	r18, 0x01A0	; 0x8001a0 <__brkval>
    174a:	30 91 a1 01 	lds	r19, 0x01A1	; 0x8001a1 <__brkval+0x1>
    174e:	28 17       	cp	r18, r24
    1750:	39 07       	cpc	r19, r25
    1752:	69 f4       	brne	.+26     	; 0x176e <free+0x10c>
    1754:	30 97       	sbiw	r30, 0x00	; 0
    1756:	29 f4       	brne	.+10     	; 0x1762 <free+0x100>
    1758:	10 92 a3 01 	sts	0x01A3, r1	; 0x8001a3 <__flp+0x1>
    175c:	10 92 a2 01 	sts	0x01A2, r1	; 0x8001a2 <__flp>
    1760:	02 c0       	rjmp	.+4      	; 0x1766 <free+0x104>
    1762:	13 82       	std	Z+3, r1	; 0x03
    1764:	12 82       	std	Z+2, r1	; 0x02
    1766:	b0 93 a1 01 	sts	0x01A1, r27	; 0x8001a1 <__brkval+0x1>
    176a:	a0 93 a0 01 	sts	0x01A0, r26	; 0x8001a0 <__brkval>
    176e:	df 91       	pop	r29
    1770:	cf 91       	pop	r28
    1772:	08 95       	ret

00001774 <strnlen_P>:
    1774:	fc 01       	movw	r30, r24
    1776:	05 90       	lpm	r0, Z+
    1778:	61 50       	subi	r22, 0x01	; 1
    177a:	70 40       	sbci	r23, 0x00	; 0
    177c:	01 10       	cpse	r0, r1
    177e:	d8 f7       	brcc	.-10     	; 0x1776 <strnlen_P+0x2>
    1780:	80 95       	com	r24
    1782:	90 95       	com	r25
    1784:	8e 0f       	add	r24, r30
    1786:	9f 1f       	adc	r25, r31
    1788:	08 95       	ret

0000178a <memset>:
    178a:	dc 01       	movw	r26, r24
    178c:	01 c0       	rjmp	.+2      	; 0x1790 <memset+0x6>
    178e:	6d 93       	st	X+, r22
    1790:	41 50       	subi	r20, 0x01	; 1
    1792:	50 40       	sbci	r21, 0x00	; 0
    1794:	e0 f7       	brcc	.-8      	; 0x178e <memset+0x4>
    1796:	08 95       	ret

00001798 <strnlen>:
    1798:	fc 01       	movw	r30, r24
    179a:	61 50       	subi	r22, 0x01	; 1
    179c:	70 40       	sbci	r23, 0x00	; 0
    179e:	01 90       	ld	r0, Z+
    17a0:	01 10       	cpse	r0, r1
    17a2:	d8 f7       	brcc	.-10     	; 0x179a <strnlen+0x2>
    17a4:	80 95       	com	r24
    17a6:	90 95       	com	r25
    17a8:	8e 0f       	add	r24, r30
    17aa:	9f 1f       	adc	r25, r31
    17ac:	08 95       	ret

000017ae <strrev>:
    17ae:	dc 01       	movw	r26, r24
    17b0:	fc 01       	movw	r30, r24
    17b2:	67 2f       	mov	r22, r23
    17b4:	71 91       	ld	r23, Z+
    17b6:	77 23       	and	r23, r23
    17b8:	e1 f7       	brne	.-8      	; 0x17b2 <strrev+0x4>
    17ba:	32 97       	sbiw	r30, 0x02	; 2
    17bc:	04 c0       	rjmp	.+8      	; 0x17c6 <strrev+0x18>
    17be:	7c 91       	ld	r23, X
    17c0:	6d 93       	st	X+, r22
    17c2:	70 83       	st	Z, r23
    17c4:	62 91       	ld	r22, -Z
    17c6:	ae 17       	cp	r26, r30
    17c8:	bf 07       	cpc	r27, r31
    17ca:	c8 f3       	brcs	.-14     	; 0x17be <strrev+0x10>
    17cc:	08 95       	ret

000017ce <fputc>:
    17ce:	0f 93       	push	r16
    17d0:	1f 93       	push	r17
    17d2:	cf 93       	push	r28
    17d4:	df 93       	push	r29
    17d6:	fb 01       	movw	r30, r22
    17d8:	23 81       	ldd	r18, Z+3	; 0x03
    17da:	21 fd       	sbrc	r18, 1
    17dc:	03 c0       	rjmp	.+6      	; 0x17e4 <fputc+0x16>
    17de:	8f ef       	ldi	r24, 0xFF	; 255
    17e0:	9f ef       	ldi	r25, 0xFF	; 255
    17e2:	2c c0       	rjmp	.+88     	; 0x183c <fputc+0x6e>
    17e4:	22 ff       	sbrs	r18, 2
    17e6:	16 c0       	rjmp	.+44     	; 0x1814 <fputc+0x46>
    17e8:	46 81       	ldd	r20, Z+6	; 0x06
    17ea:	57 81       	ldd	r21, Z+7	; 0x07
    17ec:	24 81       	ldd	r18, Z+4	; 0x04
    17ee:	35 81       	ldd	r19, Z+5	; 0x05
    17f0:	42 17       	cp	r20, r18
    17f2:	53 07       	cpc	r21, r19
    17f4:	44 f4       	brge	.+16     	; 0x1806 <fputc+0x38>
    17f6:	a0 81       	ld	r26, Z
    17f8:	b1 81       	ldd	r27, Z+1	; 0x01
    17fa:	9d 01       	movw	r18, r26
    17fc:	2f 5f       	subi	r18, 0xFF	; 255
    17fe:	3f 4f       	sbci	r19, 0xFF	; 255
    1800:	31 83       	std	Z+1, r19	; 0x01
    1802:	20 83       	st	Z, r18
    1804:	8c 93       	st	X, r24
    1806:	26 81       	ldd	r18, Z+6	; 0x06
    1808:	37 81       	ldd	r19, Z+7	; 0x07
    180a:	2f 5f       	subi	r18, 0xFF	; 255
    180c:	3f 4f       	sbci	r19, 0xFF	; 255
    180e:	37 83       	std	Z+7, r19	; 0x07
    1810:	26 83       	std	Z+6, r18	; 0x06
    1812:	14 c0       	rjmp	.+40     	; 0x183c <fputc+0x6e>
    1814:	8b 01       	movw	r16, r22
    1816:	ec 01       	movw	r28, r24
    1818:	fb 01       	movw	r30, r22
    181a:	00 84       	ldd	r0, Z+8	; 0x08
    181c:	f1 85       	ldd	r31, Z+9	; 0x09
    181e:	e0 2d       	mov	r30, r0
    1820:	09 95       	icall
    1822:	89 2b       	or	r24, r25
    1824:	e1 f6       	brne	.-72     	; 0x17de <fputc+0x10>
    1826:	d8 01       	movw	r26, r16
    1828:	16 96       	adiw	r26, 0x06	; 6
    182a:	8d 91       	ld	r24, X+
    182c:	9c 91       	ld	r25, X
    182e:	17 97       	sbiw	r26, 0x07	; 7
    1830:	01 96       	adiw	r24, 0x01	; 1
    1832:	17 96       	adiw	r26, 0x07	; 7
    1834:	9c 93       	st	X, r25
    1836:	8e 93       	st	-X, r24
    1838:	16 97       	sbiw	r26, 0x06	; 6
    183a:	ce 01       	movw	r24, r28
    183c:	df 91       	pop	r29
    183e:	cf 91       	pop	r28
    1840:	1f 91       	pop	r17
    1842:	0f 91       	pop	r16
    1844:	08 95       	ret

00001846 <__ultoa_invert>:
    1846:	fa 01       	movw	r30, r20
    1848:	aa 27       	eor	r26, r26
    184a:	28 30       	cpi	r18, 0x08	; 8
    184c:	51 f1       	breq	.+84     	; 0x18a2 <__ultoa_invert+0x5c>
    184e:	20 31       	cpi	r18, 0x10	; 16
    1850:	81 f1       	breq	.+96     	; 0x18b2 <__ultoa_invert+0x6c>
    1852:	e8 94       	clt
    1854:	6f 93       	push	r22
    1856:	6e 7f       	andi	r22, 0xFE	; 254
    1858:	6e 5f       	subi	r22, 0xFE	; 254
    185a:	7f 4f       	sbci	r23, 0xFF	; 255
    185c:	8f 4f       	sbci	r24, 0xFF	; 255
    185e:	9f 4f       	sbci	r25, 0xFF	; 255
    1860:	af 4f       	sbci	r26, 0xFF	; 255
    1862:	b1 e0       	ldi	r27, 0x01	; 1
    1864:	3e d0       	rcall	.+124    	; 0x18e2 <__ultoa_invert+0x9c>
    1866:	b4 e0       	ldi	r27, 0x04	; 4
    1868:	3c d0       	rcall	.+120    	; 0x18e2 <__ultoa_invert+0x9c>
    186a:	67 0f       	add	r22, r23
    186c:	78 1f       	adc	r23, r24
    186e:	89 1f       	adc	r24, r25
    1870:	9a 1f       	adc	r25, r26
    1872:	a1 1d       	adc	r26, r1
    1874:	68 0f       	add	r22, r24
    1876:	79 1f       	adc	r23, r25
    1878:	8a 1f       	adc	r24, r26
    187a:	91 1d       	adc	r25, r1
    187c:	a1 1d       	adc	r26, r1
    187e:	6a 0f       	add	r22, r26
    1880:	71 1d       	adc	r23, r1
    1882:	81 1d       	adc	r24, r1
    1884:	91 1d       	adc	r25, r1
    1886:	a1 1d       	adc	r26, r1
    1888:	20 d0       	rcall	.+64     	; 0x18ca <__ultoa_invert+0x84>
    188a:	09 f4       	brne	.+2      	; 0x188e <__ultoa_invert+0x48>
    188c:	68 94       	set
    188e:	3f 91       	pop	r19
    1890:	2a e0       	ldi	r18, 0x0A	; 10
    1892:	26 9f       	mul	r18, r22
    1894:	11 24       	eor	r1, r1
    1896:	30 19       	sub	r19, r0
    1898:	30 5d       	subi	r19, 0xD0	; 208
    189a:	31 93       	st	Z+, r19
    189c:	de f6       	brtc	.-74     	; 0x1854 <__ultoa_invert+0xe>
    189e:	cf 01       	movw	r24, r30
    18a0:	08 95       	ret
    18a2:	46 2f       	mov	r20, r22
    18a4:	47 70       	andi	r20, 0x07	; 7
    18a6:	40 5d       	subi	r20, 0xD0	; 208
    18a8:	41 93       	st	Z+, r20
    18aa:	b3 e0       	ldi	r27, 0x03	; 3
    18ac:	0f d0       	rcall	.+30     	; 0x18cc <__ultoa_invert+0x86>
    18ae:	c9 f7       	brne	.-14     	; 0x18a2 <__ultoa_invert+0x5c>
    18b0:	f6 cf       	rjmp	.-20     	; 0x189e <__ultoa_invert+0x58>
    18b2:	46 2f       	mov	r20, r22
    18b4:	4f 70       	andi	r20, 0x0F	; 15
    18b6:	40 5d       	subi	r20, 0xD0	; 208
    18b8:	4a 33       	cpi	r20, 0x3A	; 58
    18ba:	18 f0       	brcs	.+6      	; 0x18c2 <__ultoa_invert+0x7c>
    18bc:	49 5d       	subi	r20, 0xD9	; 217
    18be:	31 fd       	sbrc	r19, 1
    18c0:	40 52       	subi	r20, 0x20	; 32
    18c2:	41 93       	st	Z+, r20
    18c4:	02 d0       	rcall	.+4      	; 0x18ca <__ultoa_invert+0x84>
    18c6:	a9 f7       	brne	.-22     	; 0x18b2 <__ultoa_invert+0x6c>
    18c8:	ea cf       	rjmp	.-44     	; 0x189e <__ultoa_invert+0x58>
    18ca:	b4 e0       	ldi	r27, 0x04	; 4
    18cc:	a6 95       	lsr	r26
    18ce:	97 95       	ror	r25
    18d0:	87 95       	ror	r24
    18d2:	77 95       	ror	r23
    18d4:	67 95       	ror	r22
    18d6:	ba 95       	dec	r27
    18d8:	c9 f7       	brne	.-14     	; 0x18cc <__ultoa_invert+0x86>
    18da:	00 97       	sbiw	r24, 0x00	; 0
    18dc:	61 05       	cpc	r22, r1
    18de:	71 05       	cpc	r23, r1
    18e0:	08 95       	ret
    18e2:	9b 01       	movw	r18, r22
    18e4:	ac 01       	movw	r20, r24
    18e6:	0a 2e       	mov	r0, r26
    18e8:	06 94       	lsr	r0
    18ea:	57 95       	ror	r21
    18ec:	47 95       	ror	r20
    18ee:	37 95       	ror	r19
    18f0:	27 95       	ror	r18
    18f2:	ba 95       	dec	r27
    18f4:	c9 f7       	brne	.-14     	; 0x18e8 <__ultoa_invert+0xa2>
    18f6:	62 0f       	add	r22, r18
    18f8:	73 1f       	adc	r23, r19
    18fa:	84 1f       	adc	r24, r20
    18fc:	95 1f       	adc	r25, r21
    18fe:	a0 1d       	adc	r26, r0
    1900:	08 95       	ret

00001902 <__prologue_saves__>:
    1902:	2f 92       	push	r2
    1904:	3f 92       	push	r3
    1906:	4f 92       	push	r4
    1908:	5f 92       	push	r5
    190a:	6f 92       	push	r6
    190c:	7f 92       	push	r7
    190e:	8f 92       	push	r8
    1910:	9f 92       	push	r9
    1912:	af 92       	push	r10
    1914:	bf 92       	push	r11
    1916:	cf 92       	push	r12
    1918:	df 92       	push	r13
    191a:	ef 92       	push	r14
    191c:	ff 92       	push	r15
    191e:	0f 93       	push	r16
    1920:	1f 93       	push	r17
    1922:	cf 93       	push	r28
    1924:	df 93       	push	r29
    1926:	cd b7       	in	r28, 0x3d	; 61
    1928:	de b7       	in	r29, 0x3e	; 62
    192a:	ca 1b       	sub	r28, r26
    192c:	db 0b       	sbc	r29, r27
    192e:	0f b6       	in	r0, 0x3f	; 63
    1930:	f8 94       	cli
    1932:	de bf       	out	0x3e, r29	; 62
    1934:	0f be       	out	0x3f, r0	; 63
    1936:	cd bf       	out	0x3d, r28	; 61
    1938:	09 94       	ijmp

0000193a <__epilogue_restores__>:
    193a:	2a 88       	ldd	r2, Y+18	; 0x12
    193c:	39 88       	ldd	r3, Y+17	; 0x11
    193e:	48 88       	ldd	r4, Y+16	; 0x10
    1940:	5f 84       	ldd	r5, Y+15	; 0x0f
    1942:	6e 84       	ldd	r6, Y+14	; 0x0e
    1944:	7d 84       	ldd	r7, Y+13	; 0x0d
    1946:	8c 84       	ldd	r8, Y+12	; 0x0c
    1948:	9b 84       	ldd	r9, Y+11	; 0x0b
    194a:	aa 84       	ldd	r10, Y+10	; 0x0a
    194c:	b9 84       	ldd	r11, Y+9	; 0x09
    194e:	c8 84       	ldd	r12, Y+8	; 0x08
    1950:	df 80       	ldd	r13, Y+7	; 0x07
    1952:	ee 80       	ldd	r14, Y+6	; 0x06
    1954:	fd 80       	ldd	r15, Y+5	; 0x05
    1956:	0c 81       	ldd	r16, Y+4	; 0x04
    1958:	1b 81       	ldd	r17, Y+3	; 0x03
    195a:	aa 81       	ldd	r26, Y+2	; 0x02
    195c:	b9 81       	ldd	r27, Y+1	; 0x01
    195e:	ce 0f       	add	r28, r30
    1960:	d1 1d       	adc	r29, r1
    1962:	0f b6       	in	r0, 0x3f	; 63
    1964:	f8 94       	cli
    1966:	de bf       	out	0x3e, r29	; 62
    1968:	0f be       	out	0x3f, r0	; 63
    196a:	cd bf       	out	0x3d, r28	; 61
    196c:	ed 01       	movw	r28, r26
    196e:	08 95       	ret

00001970 <_exit>:
    1970:	f8 94       	cli

00001972 <__stop_program>:
    1972:	ff cf       	rjmp	.-2      	; 0x1972 <__stop_program>
